(lp1
(lp2
(I846
I985
tp3
a(I841
I996
tp4
a(I840
I995
tp5
a(I837
I1009
tp6
a(I842
I1017
tp7
a(I826
I1022
tp8
a(I819
I1024
tp9
a(I818
I1011
tp10
a(I832
I1004
tp11
a(I825
I1020
tp12
a(I823
I974
tp13
a(I814
I1005
tp14
a(I808
I978
tp15
a(I805
I954
tp16
a(I839
I954
tp17
a(I796
I910
tp18
a(I816
I957
tp19
a(I834
I927
tp20
a(I831
I893
tp21
a(I815
I893
tp22
a(I776
I855
tp23
a(I787
I828
tp24
a(I804
I838
tp25
a(I838
I909
tp26
a(I824
I892
tp27
a(I800
I811
tp28
a(I775
I777
tp29
a(I757
I765
tp30
a(I727
I704
tp31
a(I774
I757
tp32
a(I731
I682
tp33
a(I789
I763
tp34
a(I715
I660
tp35
a(I827
I891
tp36
a(I795
I810
tp37
a(I811
I822
tp38
a(I794
I740
tp39
a(I767
I740
tp40
a(I768
I745
tp41
a(I786
I809
tp42
a(I822
I900
tp43
a(I798
I865
tp44
a(I828
I915
tp45
a(I845
I970
tp46
a(I843
I953
tp47
a(I829
I922
tp48
a(I835
I990
tp49
a(I830
I983
tp50
a(I833
I951
tp51
a(I812
I926
tp52
a(I836
I1000
tp53
a(I813
I992
tp54
a(I799
I956
tp55
a(I801
I1006
tp56
a(I779
I984
tp57
a(I752
I941
tp58
a(I763
I902
tp59
a(I785
I901
tp60
a(I784
I848
tp61
a(I734
I961
tp62
a(I709
I966
tp63
a(I769
I1007
tp64
a(I783
I1018
tp65
a(I802
I1031
tp66
a(I820
I1032
tp67
a(I803
I1044
tp68
a(I807
I1047
tp69
a(I777
I1039
tp70
a(I762
I1027
tp71
a(I754
I1012
tp72
a(I750
I1040
tp73
a(I722
I1029
tp74
a(I664
I986
tp75
a(I650
I958
tp76
a(I714
I1041
tp77
a(I673
I1030
tp78
a(I772
I1049
tp79
a(I729
I1042
tp80
a(I629
I1025
tp81
a(I688
I1043
tp82
a(I739
I1045
tp83
a(I773
I1048
tp84
a(I791
I1050
tp85
a(I797
I1046
tp86
a(I817
I1038
tp87
a(I821
I1026
tp88
a(I809
I1023
tp89
a(I810
I1023
tp90
a(I806
I1010
tp91
a(I778
I1008
tp92
a(I788
I1033
tp93
a(I765
I1034
tp94
a(I781
I1034
tp95
a(I766
I1013
tp96
a(I730
I1014
tp97
a(I771
I999
tp98
a(I716
I969
tp99
a(I755
I968
tp100
a(I790
I993
tp101
a(I793
I977
tp102
a(I780
I911
tp103
a(I770
I933
tp104
a(I744
I930
tp105
a(I696
I917
tp106
a(I743
I914
tp107
a(I719
I870
tp108
a(I761
I868
tp109
a(I764
I866
tp110
a(I745
I816
tp111
a(I759
I804
tp112
a(I728
I766
tp113
a(I713
I714
tp114
a(I676
I643
tp115
a(I667
I699
tp116
a(I699
I785
tp117
a(I652
I780
tp118
a(I665
I860
tp119
a(I633
I871
tp120
a(I703
I931
tp121
a(I613
I931
tp122
a(I614
I989
tp123
a(I689
I1015
tp124
a(I657
I997
tp125
a(I690
I1028
tp126
a(I712
I1035
tp127
a(I668
I1037
tp128
aa(lp129
I1
aI1
aI1
aI1
aI1
aI1
aI1
aI1
aI1
aI1
aI1
aI1
aI1
aI1
aI1
aI1
aI1
aI1
aI1
aI1
aI1
aI1
aI1
aI1
aI1
aI1
aI1
aI1
aI1
aI1
aI1
aI1
aI1
aI1
aI1
aI1
aI1
aI1
aI1
aI1
aI1
aI1
aI1
aI1
aI1
aI1
aI1
aI1
aI1
aI1
aI1
aI1
aI1
aI1
aI1
aI1
aI1
aI1
aI1
aI1
aI1
aI1
aI1
aI1
aI1
aI1
aI1
aI1
aI1
aI1
aI1
aI1
aI1
aI1
aI1
aI1
aI1
aI1
aI1
aI1
aI1
aI1
aI1
aI1
aI1
aI1
aI1
aI1
aI1
aI1
aI1
aI1
aI1
aI1
aI1
aI1
aI1
aI1
aI1
aI1
aI1
aI1
aI1
aI1
aI1
aI1
aI1
aI1
aI1
aI1
aI1
aI1
aI1
aI1
aI1
aI1
aI1
aI1
aI1
aI1
aI1
aI1
aI1
aI1
aI1
aI1
aa.