(lp1
(lp2
(I633
I1196
tp3
a(I640
I1187
tp4
a(I555
I1152
tp5
a(I527
I1133
tp6
a(I504
I1137
tp7
a(I477
I1129
tp8
a(I418
I1125
tp9
a(I470
I1100
tp10
a(I506
I1100
tp11
a(I542
I1126
tp12
a(I589
I1147
tp13
a(I382
I1073
tp14
a(I392
I1073
tp15
a(I309
I1041
tp16
a(I359
I1066
tp17
a(I358
I1086
tp18
a(I404
I1114
tp19
a(I482
I1155
tp20
a(I417
I1111
tp21
a(I548
I1168
tp22
a(I526
I1150
tp23
a(I619
I1181
tp24
a(I581
I1167
tp25
a(I608
I1177
tp26
a(I639
I1186
tp27
a(I664
I1188
tp28
a(I649
I1192
tp29
a(I605
I1183
tp30
a(I595
I1170
tp31
a(I541
I1164
tp32
a(I455
I1135
tp33
a(I514
I1135
tp34
a(I487
I1146
tp35
a(I449
I1144
tp36
a(I403
I1093
tp37
a(I318
I1081
tp38
a(I525
I1145
tp39
a(I574
I1151
tp40
a(I492
I1120
tp41
a(I663
I1193
tp42
a(I626
I1178
tp43
a(I666
I1171
tp44
a(I627
I1156
tp45
a(I630
I1156
tp46
a(I554
I1132
tp47
a(I560
I1079
tp48
a(I543
I1079
tp49
a(I634
I1138
tp50
a(I676
I1153
tp51
a(I686
I1173
tp52
a(I682
I1194
tp53
a(I700
I1199
tp54
a(I713
I1185
tp55
a(I717
I1185
tp56
a(I699
I1176
tp57
a(I703
I1163
tp58
a(I683
I1149
tp59
a(I620
I1102
tp60
a(I592
I1067
tp61
a(I690
I1110
tp62
a(I701
I1139
tp63
a(I707
I1136
tp64
a(I724
I1169
tp65
a(I723
I1169
tp66
a(I727
I1191
tp67
a(I721
I1191
tp68
a(I725
I1165
tp69
a(I731
I1165
tp70
a(I719
I1140
tp71
a(I728
I1166
tp72
a(I729
I1179
tp73
a(I730
I1179
tp74
a(I722
I1195
tp75
a(I715
I1202
tp76
a(I714
I1202
tp77
a(I709
I1198
tp78
a(I697
I1190
tp79
a(I681
I1201
tp80
a(I689
I1197
tp81
a(I706
I1200
tp82
a(I660
I1180
tp83
a(I692
I1184
tp84
a(I650
I1172
tp85
a(I646
I1162
tp86
a(I661
I1162
tp87
a(I624
I1148
tp88
a(I591
I1128
tp89
a(I568
I1122
tp90
a(I522
I1074
tp91
a(I462
I1075
tp92
a(I515
I1075
tp93
a(I411
I1061
tp94
a(I323
I1035
tp95
a(I441
I1030
tp96
a(I436
I1037
tp97
a(I363
I1020
tp98
a(I656
I1141
tp99
a(I677
I1141
tp100
a(I678
I1159
tp101
a(I693
I1159
tp102
a(I695
I1182
tp103
a(I710
I1174
tp104
a(I716
I1175
tp105
a(I718
I1158
tp106
a(I726
I1161
tp107
a(I720
I1143
tp108
a(I708
I1119
tp109
a(I705
I1131
tp110
a(I694
I1108
tp111
a(I704
I1142
tp112
a(I698
I1154
tp113
a(I696
I1160
tp114
a(I668
I1130
tp115
a(I687
I1157
tp116
a(I613
I1123
tp117
a(I610
I1095
tp118
a(I545
I1069
tp119
a(I593
I1069
tp120
a(I632
I1077
tp121
a(I564
I1039
tp122
a(I570
I1039
tp123
a(I651
I1080
tp124
a(I675
I1080
tp125
a(I573
I1015
tp126
a(I625
I1054
tp127
a(I659
I1054
tp128
a(I679
I1060
tp129
a(I669
I1055
tp130
a(I684
I1083
tp131
a(I662
I1027
tp132
aa(lp133
I1
aI1
aI1
aI1
aI1
aI1
aI1
aI1
aI1
aI1
aI1
aI1
aI1
aI1
aI1
aI1
aI1
aI1
aI1
aI1
aI1
aI1
aI1
aI1
aI1
aI1
aI1
aI1
aI1
aI1
aI1
aI1
aI1
aI1
aI1
aI1
aI1
aI1
aI1
aI1
aI1
aI1
aI1
aI1
aI1
aI1
aI1
aI1
aI1
aI1
aI1
aI1
aI1
aI1
aI1
aI1
aI1
aI1
aI1
aI1
aI1
aI1
aI1
aI1
aI1
aI1
aI1
aI1
aI1
aI1
aI1
aI1
aI1
aI1
aI1
aI1
aI1
aI1
aI1
aI1
aI1
aI1
aI1
aI1
aI1
aI1
aI1
aI1
aI1
aI1
aI1
aI1
aI1
aI1
aI1
aI1
aI1
aI1
aI1
aI1
aI1
aI1
aI1
aI1
aI1
aI1
aI1
aI1
aI1
aI1
aI1
aI1
aI1
aI1
aI1
aI1
aI1
aI1
aI1
aI1
aI1
aI1
aI1
aI1
aI1
aI1
aI1
aI1
aI1
aI1
aa.