((lp1
(I2
I4
tp2
a(I3
I7
tp3
a(I4
I15
tp4
a(I5
I4
tp5
a(I6
I10
tp6
a(I7
I13
tp7
a(I8
I9
tp8
a(I9
I292
tp9
a(I10
I11
tp10
a(I11
I8
tp11
a(I12
I14
tp12
a(I13
I17
tp13
a(I14
I266
tp14
a(I15
I244
tp15
a(I16
I1
tp16
a(I17
I20
tp17
a(I18
I21
tp18
a(I19
I24
tp19
a(I20
I25
tp20
a(I21
I226
tp21
a(I22
I1
tp22
a(I23
I29
tp23
a(I24
I22
tp24
a(I25
I32
tp25
a(I26
I19
tp26
a(I27
I30
tp27
a(I28
I320
tp28
a(I29
I33
tp29
a(I30
I261
tp30
a(I31
I226
tp31
a(I32
I31
tp32
a(I33
I276
tp33
a(I34
I293
tp34
a(I35
I38
tp35
a(I36
I40
tp36
a(I37
I238
tp37
a(I38
I39
tp38
a(I39
I261
tp39
a(I40
I46
tp40
a(I41
I268
tp41
a(I42
I47
tp42
a(I43
I48
tp43
a(I44
I42
tp44
a(I45
I277
tp45
a(I46
I50
tp46
a(I47
I221
tp47
a(I48
I52
tp48
a(I49
I54
tp49
a(I50
I1
tp50
a(I51
I56
tp51
a(I52
I48
tp52
a(I53
I57
tp53
a(I54
I58
tp54
a(I55
I59
tp55
a(I56
I62
tp56
a(I57
I60
tp57
a(I58
I254
tp58
a(I59
I54
tp59
a(I60
I64
tp60
a(I61
I378
tp61
a(I62
I66
tp62
a(I63
I67
tp63
a(I64
I63
tp64
a(I65
I85
tp65
a(I66
I65
tp66
a(I67
I222
tp67
a(I68
I70
tp68
a(I69
I323
tp69
a(I70
I74
tp70
a(I71
I71
tp71
a(I72
I75
tp72
a(I73
I1
tp73
a(I74
I79
tp74
a(I75
I80
tp75
a(I76
I78
tp76
a(I77
I313
tp77
a(I78
I84
tp78
a(I79
I88
tp79
a(I80
I79
tp80
a(I81
I89
tp81
a(I82
I91
tp82
a(I83
I90
tp83
a(I84
I87
tp84
a(I85
I93
tp85
a(I86
I95
tp86
a(I87
I255
tp87
a(I88
I96
tp88
a(I89
I97
tp89
a(I90
I99
tp90
a(I91
I100
tp91
a(I92
I93
tp92
a(I93
I98
tp93
a(I94
I1
tp94
a(I95
I101
tp95
a(I96
I102
tp96
a(I97
I107
tp97
a(I98
I108
tp98
a(I99
I105
tp99
a(I100
I103
tp100
a(I101
I104
tp101
a(I102
I109
tp102
a(I103
I265
tp103
a(I104
I106
tp104
a(I105
I112
tp105
a(I106
I246
tp106
a(I107
I114
tp107
a(I108
I111
tp108
a(I109
I116
tp109
a(I110
I112
tp110
a(I111
I118
tp111
a(I112
I115
tp112
a(I113
I117
tp113
a(I114
I121
tp114
a(I115
I120
tp115
a(I116
I123
tp116
a(I117
I126
tp117
a(I118
I289
tp118
a(I119
I410
tp119
a(I120
I124
tp120
a(I121
I301
tp121
a(I122
I129
tp122
a(I123
I353
tp123
a(I124
I125
tp124
a(I125
I282
tp125
a(I126
I508
tp126
a(I127
I1
tp127
a(I128
I308
tp128
a(I129
I133
tp129
a(I130
I132
tp130
a(I131
I136
tp131
a(I132
I140
tp132
a(I133
I135
tp133
a(I134
I142
tp134
a(I135
I138
tp135
a(I136
I143
tp136
a(I137
I325
tp137
a(I138
I131
tp138
a(I139
I272
tp139
a(I140
I1
tp140
a(I141
I147
tp141
a(I142
I144
tp142
a(I143
I146
tp143
a(I144
I283
tp144
a(I145
I249
tp145
a(I146
I145
tp146
a(I147
I152
tp147
a(I148
I151
tp148
a(I149
I149
tp149
a(I150
I229
tp150
a(I151
I157
tp151
a(I152
I150
tp152
a(I153
I250
tp153
a(I154
I291
tp154
a(I155
I158
tp155
a(I156
I156
tp156
a(I157
I160
tp157
a(I158
I159
tp158
a(I159
I161
tp159
a(I160
I163
tp160
a(I161
I154
tp161
a(I162
I165
tp162
a(I163
I309
tp163
a(I164
I167
tp164
a(I165
I304
tp165
a(I166
I170
tp166
a(I167
I172
tp167
a(I168
I169
tp168
a(I169
I171
tp169
a(I170
I174
tp170
a(I171
I176
tp171
a(I172
I178
tp172
a(I173
I225
tp173
a(I174
I177
tp174
a(I175
I175
tp175
a(I176
I182
tp176
a(I177
I220
tp177
a(I178
I179
tp178
a(I179
I183
tp179
a(I180
I182
tp180
a(I181
I184
tp181
a(I182
I178
tp182
a(I183
I185
tp183
a(I184
I190
tp184
a(I185
I186
tp185
a(I186
I160
tp186
a(I187
I411
tp187
a(I188
I189
tp188
a(I189
I188
tp189
a(I190
I190
tp190
a(I191
I230
tp191
a(I192
I362
tp192
a(I193
I194
tp193
a(I194
I193
tp194
a(I195
I236
tp195
a(I196
I196
tp196
a(I197
I199
tp197
a(I198
I198
tp198
a(I199
I203
tp199
a(I200
I345
tp200
a(I201
I200
tp201
a(I202
I197
tp202
a(I203
I201
tp203
a(I204
I204
tp204
a(I205
I208
tp205
a(I206
I206
tp206
a(I207
I207
tp207
a(I208
I210
tp208
a(I209
I212
tp209
a(I210
I209
tp210
a(I211
I211
tp211
a(I212
I214
tp212
a(I213
I213
tp213
a(I214
I216
tp214
a(I215
I215
tp215
a(I216
I206
tp216
a(I217
I217
tp217
a(I218
I224
tp218
a(I219
I205
tp219
a(I220
I26
tp220
a(I221
I43
tp221
a(I222
I76
tp222
a(I223
I82
tp223
a(I224
I120
tp224
a(I225
I148
tp225
a(I226
I153
tp226
a(I227
I181
tp227
a(I228
I2
tp228
a(I229
I3
tp229
a(I230
I5
tp230
a(I231
I18
tp231
a(I232
I110
tp232
a(I233
I160
tp233
a(I234
I36
tp234
a(I235
I55
tp235
a(I236
I234
tp236
a(I237
I122
tp237
a(I238
I251
tp238
a(I239
I274
tp239
a(I240
I237
tp240
a(I241
I22
tp241
a(I242
I31
tp242
a(I243
I35
tp243
a(I244
I45
tp244
a(I245
I263
tp245
a(I246
I84
tp246
a(I247
I227
tp247
a(I248
I139
tp248
a(I249
I241
tp249
a(I250
I6
tp250
a(I251
I34
tp251
a(I252
I240
tp252
a(I253
I223
tp253
a(I254
I86
tp254
a(I255
I113
tp255
a(I256
I12
tp256
a(I257
I23
tp257
a(I258
I231
tp258
a(I259
I69
tp259
a(I260
I218
tp260
a(I261
I119
tp261
a(I262
I247
tp262
a(I263
I134
tp263
a(I264
I272
tp264
a(I265
I248
tp265
a(I266
I252
tp266
a(I267
I1
tp267
a(I268
I290
tp268
a(I269
I154
tp269
a(I270
I15
tp270
a(I271
I16
tp271
a(I272
I83
tp272
a(I273
I256
tp273
a(I274
I1
tp274
a(I275
I127
tp275
a(I276
I229
tp276
a(I277
I225
tp277
a(I278
I242
tp278
a(I279
I236
tp279
a(I280
I284
tp280
a(I281
I44
tp281
a(I282
I55
tp282
a(I283
I60
tp283
a(I284
I222
tp284
a(I285
I92
tp285
a(I286
I300
tp286
a(I287
I166
tp287
a(I288
I170
tp288
a(I289
I243
tp289
a(I290
I19
tp290
a(I291
I268
tp291
a(I292
I279
tp292
a(I293
I94
tp293
a(I294
I101
tp294
a(I295
I112
tp295
a(I296
I307
tp296
a(I297
I145
tp297
a(I298
I342
tp298
a(I299
I21
tp299
a(I300
I27
tp300
a(I301
I37
tp301
a(I302
I50
tp302
a(I303
I61
tp303
a(I304
I81
tp304
a(I305
I298
tp305
a(I306
I101
tp306
a(I307
I315
tp307
a(I308
I302
tp308
a(I309
I249
tp309
a(I310
I259
tp310
a(I311
I310
tp311
a(I312
I216
tp312
a(I313
I293
tp313
a(I314
I41
tp314
a(I315
I294
tp315
a(I316
I269
tp316
a(I317
I221
tp317
a(I318
I289
tp318
a(I319
I1
tp319
a(I320
I4
tp320
a(I321
I36
tp321
a(I322
I49
tp322
a(I323
I323
tp323
a(I324
I314
tp324
a(I325
I281
tp325
a(I326
I273
tp326
a(I327
I13
tp327
a(I328
I285
tp328
a(I329
I261
tp329
a(I330
I56
tp330
a(I331
I295
tp331
a(I332
I296
tp332
a(I333
I322
tp333
a(I334
I332
tp334
a(I335
I278
tp335
a(I336
I264
tp336
a(I337
I299
tp337
a(I338
I246
tp338
a(I339
I257
tp339
a(I340
I258
tp340
a(I341
I374
tp341
a(I342
I395
tp342
a(I343
I382
tp343
a(I344
I328
tp344
a(I345
I311
tp345
a(I346
I276
tp346
a(I347
I330
tp347
a(I348
I402
tp348
a(I349
I283
tp349
a(I350
I24
tp350
a(I351
I253
tp351
a(I352
I329
tp352
a(I353
I350
tp353
a(I354
I548
tp354
a(I355
I232
tp355
a(I356
I360
tp356
a(I357
I245
tp357
a(I358
I352
tp358
a(I359
I353
tp359
a(I360
I303
tp360
a(I361
I375
tp361
a(I362
I346
tp362
a(I363
I363
tp363
a(I364
I18
tp364
a(I365
I238
tp365
a(I366
I340
tp366
a(I367
I239
tp367
a(I368
I262
tp368
a(I369
I333
tp369
a(I370
I387
tp370
a(I371
I301
tp371
a(I372
I354
tp372
a(I373
I335
tp373
a(I374
I326
tp374
a(I375
I383
tp375
a(I376
I318
tp376
a(I377
I319
tp377
a(I378
I286
tp378
a(I379
I255
tp379
a(I380
I282
tp380
a(I381
I381
tp381
a(I382
I356
tp382
a(I383
I266
tp383
a(I384
I267
tp384
a(I385
I454
tp385
a(I386
I389
tp386
a(I387
I344
tp387
a(I388
I376
tp388
a(I389
I412
tp389
a(I390
I317
tp390
a(I391
I260
tp391
a(I392
I287
tp392
a(I393
I385
tp393
a(I394
I254
tp394
a(I395
I553
tp395
a(I396
I361
tp396
a(I397
I409
tp397
a(I398
I429
tp398
a(I399
I411
tp399
a(I400
I362
tp400
a(I401
I338
tp401
a(I402
I275
tp402
a(I403
I313
tp403
a(I404
I428
tp404
a(I405
I355
tp405
a(I406
I460
tp406
a(I407
I292
tp407
a(I408
I359
tp408
a(I409
I437
tp409
a(I410
I297
tp410
a(I411
I316
tp411
a(I412
I373
tp412
a(I413
I403
tp413
a(I414
I380
tp414
a(I415
I434
tp415
a(I416
I388
tp416
a(I417
I438
tp417
a(I418
I413
tp418
a(I419
I357
tp419
a(I420
I339
tp420
a(I421
I321
tp421
a(I422
I418
tp422
a(I423
I432
tp423
a(I424
I1
tp424
a(I425
I343
tp425
a(I426
I1
tp426
a(I427
I510
tp427
a(I428
I327
tp428
a(I429
I396
tp429
a(I430
I397
tp430
a(I431
I415
tp431
a(I432
I306
tp432
a(I433
I306
tp433
a(I434
I392
tp434
a(I435
I398
tp435
a(I436
I1
tp436
a(I437
I826
tp437
a(I438
I337
tp438
a(I439
I384
tp439
a(I440
I348
tp440
a(I441
I320
tp441
a(I442
I416
tp442
a(I443
I305
tp443
a(I444
I351
tp444
a(I445
I334
tp445
a(I446
I474
tp446
a(I447
I371
tp447
a(I448
I443
tp448
a(I449
I446
tp449
a(I450
I517
tp450
a(I451
I435
tp451
a(I452
I468
tp452
a(I453
I347
tp453
a(I454
I364
tp454
a(I455
I358
tp455
a(I456
I286
tp456
a(I457
I366
tp457
a(I458
I406
tp458
a(I459
I331
tp459
a(I460
I490
tp460
a(I461
I401
tp461
a(I462
I477
tp462
a(I463
I393
tp463
a(I464
I482
tp464
a(I465
I519
tp465
a(I466
I479
tp466
a(I467
I439
tp467
a(I468
I390
tp468
a(I469
I367
tp469
a(I470
I453
tp470
a(I471
I368
tp471
a(I472
I431
tp472
a(I473
I289
tp473
a(I474
I394
tp474
a(I475
I695
tp475
a(I476
I251
tp476
a(I477
I478
tp477
a(I478
I504
tp478
a(I479
I423
tp479
a(I480
I377
tp480
a(I481
I295
tp481
a(I482
I379
tp482
a(I483
I457
tp483
a(I484
I456
tp484
a(I485
I491
tp485
a(I486
I370
tp486
a(I487
I271
tp487
a(I488
I442
tp488
a(I489
I444
tp489
a(I490
I421
tp490
a(I491
I486
tp491
a(I492
I447
tp492
a(I493
I404
tp493
a(I494
I365
tp494
a(I495
I37
tp495
a(I496
I349
tp496
a(I497
I473
tp497
a(I498
I255
tp498
a(I499
I386
tp499
a(I500
I475
tp500
a(I501
I433
tp501
a(I502
I502
tp502
a(I503
I487
tp503
a(I504
I493
tp504
a(I505
I561
tp505
a(I506
I436
tp506
a(I507
I391
tp507
a(I508
I450
tp508
a(I509
I430
tp509
a(I510
I419
tp510
a(I511
I407
tp511
a(I512
I463
tp512
a(I513
I408
tp513
a(I514
I466
tp514
a(I515
I420
tp515
a(I516
I1
tp516
a(I517
I590
tp517
a(I518
I448
tp518
a(I519
I472
tp519
a(I520
I885
tp520
a(I521
I400
tp521
a(I522
I557
tp522
a(I523
I525
tp523
a(I524
I1
tp524
a(I525
I518
tp525
a(I526
I591
tp526
a(I527
I414
tp527
a(I528
I417
tp528
a(I529
I512
tp529
a(I530
I506
tp530
a(I531
I455
tp531
a(I532
I465
tp532
a(I533
I372
tp533
a(I534
I445
tp534
a(I535
I459
tp535
a(I536
I534
tp536
a(I537
I559
tp537
a(I538
I535
tp538
a(I539
I503
tp539
a(I540
I451
tp540
a(I541
I513
tp541
a(I542
I313
tp542
a(I543
I498
tp543
a(I544
I464
tp544
a(I545
I483
tp545
a(I546
I556
tp546
a(I547
I552
tp547
a(I548
I520
tp548
a(I549
I327
tp549
a(I550
I536
tp550
a(I551
I405
tp551
a(I552
I521
tp552
a(I553
I497
tp553
a(I554
I529
tp554
a(I555
I440
tp555
a(I556
I476
tp556
a(I557
I617
tp557
a(I558
I539
tp558
a(I559
I469
tp559
a(I560
I424
tp560
a(I561
I505
tp561
a(I562
I427
tp562
a(I563
I531
tp563
a(I564
I542
tp564
a(I565
I480
tp565
a(I566
I461
tp566
a(I567
I549
tp567
a(I568
I458
tp568
a(I569
I524
tp569
a(I570
I484
tp570
a(I571
I485
tp571
a(I572
I574
tp572
a(I573
I606
tp573
a(I574
I622
tp574
a(I575
I449
tp575
a(I576
I496
tp576
a(I577
I523
tp577
a(I578
I568
tp578
a(I579
I492
tp579
a(I580
I589
tp580
a(I581
I501
tp581
a(I582
I516
tp582
a(I583
I618
tp583
a(I584
I664
tp584
a(I585
I58
tp585
a(I586
I489
tp586
a(I587
I426
tp587
a(I588
I554
tp588
a(I589
I361
tp589
a(I590
I532
tp590
a(I591
I540
tp591
a(I592
I467
tp592
a(I593
I499
tp593
a(I594
I533
tp594
a(I595
I582
tp595
a(I596
I543
tp596
a(I597
I590
tp597
a(I598
I511
tp598
a(I599
I494
tp599
a(I600
I547
tp600
a(I601
I452
tp601
a(I602
I495
tp602
a(I603
I541
tp603
a(I604
I500
tp604
a(I605
I546
tp605
a(I606
I488
tp606
a(I607
I462
tp607
a(I608
I470
tp608
a(I609
I587
tp609
a(I610
I595
tp610
a(I611
I580
tp611
a(I612
I130
tp612
a(I613
I646
tp613
a(I614
I602
tp614
a(I615
I575
tp615
a(I616
I698
tp616
a(I617
I544
tp617
a(I618
I527
tp618
a(I619
I453
tp619
a(I620
I481
tp620
a(I621
I594
tp621
a(I622
I514
tp622
a(I623
I610
tp623
a(I624
I598
tp624
a(I625
I656
tp625
a(I626
I143
tp626
a(I627
I581
tp627
a(I628
I576
tp628
a(I629
I672
tp629
a(I630
I507
tp630
a(I631
I551
tp631
a(I632
I597
tp632
a(I633
I534
tp633
a(I634
I612
tp634
a(I635
I537
tp635
a(I636
I625
tp636
a(I637
I632
tp637
a(I638
I471
tp638
a(I639
I73
tp639
a(I640
I615
tp640
a(I641
I634
tp641
a(I642
I558
tp642
a(I643
I611
tp643
a(I644
I672
tp644
a(I645
I623
tp645
a(I646
I526
tp646
a(I647
I562
tp647
a(I648
I600
tp648
a(I649
I565
tp649
a(I650
I641
tp650
a(I651
I603
tp651
a(I652
I644
tp652
a(I653
I572
tp653
a(I654
I605
tp654
a(I655
I560
tp655
a(I656
I637
tp656
a(I657
I522
tp657
a(I658
I73
tp658
a(I659
I569
tp659
a(I660
I653
tp660
a(I661
I647
tp661
a(I662
I607
tp662
a(I663
I659
tp663
a(I664
I563
tp664
a(I665
I631
tp665
a(I666
I528
tp666
a(I667
I754
tp667
a(I668
I633
tp668
a(I669
I654
tp669
a(I670
I606
tp670
a(I671
I623
tp671
a(I672
I649
tp672
a(I673
I608
tp673
a(I674
I583
tp674
a(I675
I630
tp675
a(I676
I457
tp676
a(I677
I570
tp677
a(I678
I596
tp678
a(I679
I550
tp679
a(I680
I571
tp680
a(I681
I636
tp681
a(I682
I599
tp682
a(I683
I617
tp683
a(I684
I707
tp684
a(I685
I665
tp685
a(I686
I588
tp686
a(I687
I834
tp687
a(I688
I663
tp688
a(I689
I729
tp689
a(I690
I545
tp690
a(I691
I538
tp691
a(I692
I651
tp692
a(I693
I626
tp693
a(I694
I567
tp694
a(I695
I627
tp695
a(I696
I578
tp696
a(I697
I639
tp697
a(I698
I555
tp698
a(I699
I616
tp699
a(I700
I839
tp700
a(I701
I657
tp701
a(I702
I717
tp702
a(I703
I584
tp703
a(I704
I650
tp704
a(I705
I564
tp705
a(I706
I638
tp706
a(I707
I452
tp707
a(I708
I613
tp708
a(I709
I1
tp709
a(I710
I680
tp710
a(I711
I648
tp711
a(I712
I706
tp712
a(I713
I716
tp713
a(I714
I671
tp714
a(I715
I835
tp715
a(I716
I577
tp716
a(I717
I585
tp717
a(I718
I602
tp718
a(I719
I579
tp719
a(I720
I682
tp720
a(I721
I604
tp721
a(I722
I442
tp722
a(I723
I635
tp723
a(I724
I766
tp724
a(I725
I826
tp725
a(I726
I537
tp726
a(I727
I675
tp727
a(I728
I566
tp728
a(I729
I592
tp729
a(I730
I640
tp730
a(I731
I688
tp731
a(I732
I645
tp732
a(I733
I742
tp733
a(I734
I658
tp734
a(I735
I724
tp735
a(I736
I708
tp736
a(I737
I673
tp737
a(I738
I609
tp738
a(I739
I586
tp739
a(I740
I601
tp740
a(I741
I725
tp741
a(I742
I720
tp742
a(I743
I687
tp743
a(I744
I690
tp744
a(I745
I743
tp745
a(I746
I681
tp746
a(I747
I797
tp747
a(I748
I629
tp748
a(I749
I719
tp749
a(I750
I714
tp750
a(I751
I628
tp751
a(I752
I643
tp752
a(I753
I621
tp753
a(I754
I818
tp754
a(I755
I667
tp755
a(I756
I674
tp756
a(I757
I733
tp757
a(I758
I711
tp758
a(I759
I614
tp759
a(I760
I683
tp760
a(I761
I679
tp761
a(I762
I655
tp762
a(I763
I694
tp763
a(I764
I722
tp764
a(I765
I646
tp765
a(I766
I697
tp766
a(I767
I723
tp767
a(I768
I730
tp768
a(I769
I745
tp769
a(I770
I620
tp770
a(I771
I762
tp771
a(I772
I888
tp772
a(I773
I642
tp773
a(I774
I749
tp774
a(I775
I696
tp775
a(I776
I689
tp776
a(I777
I1
tp777
a(I778
I660
tp778
a(I779
I718
tp779
a(I780
I585
tp780
a(I781
I738
tp781
a(I782
I938
tp782
a(I783
I686
tp783
a(I784
I715
tp784
a(I785
I751
tp785
a(I786
I847
tp786
a(I787
I796
tp787
a(I788
I701
tp788
a(I789
I735
tp789
a(I790
I624
tp790
a(I791
I692
tp791
a(I792
I677
tp792
a(I793
I748
tp793
a(I794
I786
tp794
a(I795
I758
tp795
a(I796
I744
tp796
a(I797
I661
tp797
a(I798
I700
tp798
a(I799
I631
tp799
a(I800
I737
tp800
a(I801
I704
tp801
a(I802
I693
tp802
a(I803
I687
tp803
a(I804
I1
tp804
a(I805
I728
tp805
a(I806
I729
tp806
a(I807
I811
tp807
a(I808
I609
tp808
a(I809
I668
tp809
a(I810
I77
tp810
a(I811
I756
tp811
a(I812
I670
tp812
a(I813
I721
tp813
a(I814
I803
tp814
a(I815
I764
tp815
a(I816
I752
tp816
a(I817
I691
tp817
a(I818
I676
tp818
a(I819
I774
tp819
a(I820
I784
tp820
a(I821
I685
tp821
a(I822
I727
tp822
a(I823
I768
tp823
a(I824
I678
tp824
a(I825
I793
tp825
a(I826
I839
tp826
a(I827
I772
tp827
a(I828
I699
tp828
a(I829
I638
tp829
a(I830
I767
tp830
a(I831
I669
tp831
a(I832
I713
tp832
a(I833
I705
tp833
a(I834
I840
tp834
a(I835
I780
tp835
a(I836
I664
tp836
a(I837
I828
tp837
a(I838
I781
tp838
a(I839
I624
tp839
a(I840
I632
tp840
a(I841
I822
tp841
a(I842
I712
tp842
a(I843
I814
tp843
a(I844
I741
tp844
a(I845
I801
tp845
a(I846
I750
tp846
a(I847
I834
tp847
a(I848
I765
tp848
a(I849
I807
tp849
a(I850
I703
tp850
a(I851
I740
tp851
a(I852
I823
tp852
a(I853
I817
tp853
a(I854
I720
tp854
a(I855
I819
tp855
a(I856
I773
tp856
a(I857
I821
tp857
a(I858
I769
tp858
a(I859
I809
tp859
a(I860
I795
tp860
a(I861
I731
tp861
a(I862
I702
tp862
a(I863
I845
tp863
a(I864
I763
tp864
a(I865
I868
tp865
a(I866
I846
tp866
a(I867
I770
tp867
a(I868
I825
tp868
a(I869
I818
tp869
a(I870
I878
tp870
a(I871
I788
tp871
a(I872
I732
tp872
a(I873
I806
tp873
a(I874
I746
tp874
a(I875
I734
tp875
a(I876
I709
tp876
a(I877
I785
tp877
a(I878
I856
tp878
a(I879
I761
tp879
a(I880
I779
tp880
a(I881
I834
tp881
a(I882
I853
tp882
a(I883
I771
tp883
a(I884
I826
tp884
a(I885
I892
tp885
a(I886
I799
tp886
a(I887
I747
tp887
a(I888
I760
tp888
a(I889
I755
tp889
a(I890
I840
tp890
a(I891
I804
tp891
a(I892
I812
tp892
a(I893
I726
tp893
a(I894
I777
tp894
a(I895
I794
tp895
a(I896
I778
tp896
a(I897
I802
tp897
a(I898
I766
tp898
a(I899
I659
tp899
a(I900
I759
tp900
a(I901
I736
tp901
a(I902
I709
tp902
a(I903
I854
tp903
a(I904
I816
tp904
a(I905
I688
tp905
a(I906
I691
tp906
a(I907
I842
tp907
a(I908
I782
tp908
a(I909
I767
tp909
a(I910
I808
tp910
a(I911
I760
tp911
a(I912
I860
tp912
a(I913
I1
tp913
a(I914
I914
tp914
a(I915
I806
tp915
a(I916
I798
tp916
a(I917
I754
tp917
a(I918
I725
tp918
a(I919
I813
tp919
a(I920
I785
tp920
a(I921
I815
tp921
a(I922
I792
tp922
a(I923
I904
tp923
a(I924
I805
tp924
a(I925
I789
tp925
a(I926
I753
tp926
a(I927
I815
tp927
a(I928
I824
tp928
a(I929
I890
tp929
a(I930
I862
tp930
a(I931
I882
tp931
a(I932
I883
tp932
a(I933
I832
tp933
a(I934
I775
tp934
a(I935
I800
tp935
a(I936
I847
tp936
a(I937
I872
tp937
a(I938
I871
tp938
a(I939
I861
tp939
a(I940
I949
tp940
a(I941
I949
tp941
a(I942
I849
tp942
a(I943
I886
tp943
a(I944
I874
tp944
a(I945
I875
tp945
a(I946
I939
tp946
a(I947
I900
tp947
a(I948
I783
tp948
a(I949
I821
tp949
a(I950
I833
tp950
a(I951
I837
tp951
a(I952
I851
tp952
a(I953
I852
tp953
a(I954
I870
tp954
a(I955
I897
tp955
a(I956
I847
tp956
a(I957
I877
tp957
a(I958
I879
tp958
a(I959
I948
tp959
a(I960
I820
tp960
a(I961
I829
tp961
a(I962
I906
tp962
a(I963
I790
tp963
a(I964
I907
tp964
a(I965
I884
tp965
a(I966
I898
tp966
a(I967
I876
tp967
a(I968
I826
tp968
a(I969
I866
tp969
a(I970
I859
tp970
a(I971
I912
tp971
a(I972
I865
tp972
a(I973
I924
tp973
a(I974
I940
tp974
a(I975
I830
tp975
a(I976
I831
tp976
a(I977
I844
tp977
a(I978
I920
tp978
a(I979
I858
tp979
a(I980
I899
tp980
a(I981
I986
tp981
a(I982
I850
tp982
a(I983
I926
tp983
a(I984
I913
tp984
a(I985
I889
tp985
a(I986
I843
tp986
a(I987
I831
tp987
a(I988
I836
tp988
a(I989
I838
tp989
a(I990
I867
tp990
a(I991
I869
tp991
a(I992
I923
tp992
a(I993
I909
tp993
a(I994
I910
tp994
a(I995
I915
tp995
a(I996
I796
tp996
a(I997
I873
tp997
a(I998
I864
tp998
a(I999
I829
tp999
a(I1000
I951
tp1000
a(I1001
I911
tp1001
a(I1002
I839
tp1002
a(I1003
I956
tp1003
a(I1004
I935
tp1004
a(I1005
I901
tp1005
a(I1006
I881
tp1006
a(I1007
I848
tp1007
a(I1008
I950
tp1008
a(I1009
I971
tp1009
a(I1010
I954
tp1010
a(I1011
I1046
tp1011
a(I1012
I841
tp1012
a(I1013
I916
tp1013
a(I1014
I855
tp1014
a(I1015
I908
tp1015
a(I1016
I839
tp1016
a(I1017
I929
tp1017
a(I1018
I985
tp1018
a(I1019
I863
tp1019
a(I1020
I928
tp1020
a(I1021
I922
tp1021
a(I1022
I925
tp1022
a(I1023
I992
tp1023
a(I1024
I1
tp1024
a(I1025
I1
tp1025
a(I1026
I943
tp1026
a(I1027
I927
tp1027
a(I1028
I896
tp1028
a(I1029
I903
tp1029
a(I1030
I990
tp1030
a(I1031
I946
tp1031
a(I1032
I930
tp1032
a(I1033
I958
tp1033
a(I1034
I968
tp1034
a(I1035
I841
tp1035
a(I1036
I960
tp1036
a(I1037
I962
tp1037
a(I1038
I931
tp1038
a(I1039
I921
tp1039
a(I1040
I1033
tp1040
a(I1041
I819
tp1041
a(I1042
I1016
tp1042
a(I1043
I893
tp1043
a(I1044
I894
tp1044
a(I1045
I887
tp1045
a(I1046
I972
tp1046
a(I1047
I895
tp1047
a(I1048
I1007
tp1048
a(I1049
I957
tp1049
a(I1050
I1000
tp1050
a(I1051
I905
tp1051
a(I1052
I995
tp1052
a(I1053
I933
tp1053
a(I1054
I1012
tp1054
a(I1055
I1006
tp1055
a(I1056
I878
tp1056
a(I1057
I652
tp1057
a(I1058
I932
tp1058
a(I1059
I902
tp1059
a(I1060
I850
tp1060
a(I1061
I983
tp1061
a(I1062
I1013
tp1062
a(I1063
I991
tp1063
a(I1064
I977
tp1064
a(I1065
I1132
tp1065
a(I1066
I917
tp1066
a(I1067
I942
tp1067
a(I1068
I893
tp1068
a(I1069
I1089
tp1069
a(I1070
I1002
tp1070
a(I1071
I952
tp1071
a(I1072
I945
tp1072
a(I1073
I953
tp1073
a(I1074
I874
tp1074
a(I1075
I992
tp1075
a(I1076
I986
tp1076
a(I1077
I996
tp1077
a(I1078
I919
tp1078
a(I1079
I955
tp1079
a(I1080
I974
tp1080
a(I1081
I975
tp1081
a(I1082
I1055
tp1082
a(I1083
I1011
tp1083
a(I1084
I937
tp1084
a(I1085
I934
tp1085
a(I1086
I967
tp1086
a(I1087
I976
tp1087
a(I1088
I947
tp1088
a(I1089
I1
tp1089
a(I1090
I978
tp1090
a(I1091
I969
tp1091
a(I1092
I979
tp1092
a(I1093
I917
tp1093
a(I1094
I964
tp1094
a(I1095
I918
tp1095
a(I1096
I987
tp1096
a(I1097
I988
tp1097
a(I1098
I982
tp1098
a(I1099
I1008
tp1099
a(I1100
I1015
tp1100
a(I1101
I1
tp1101
a(I1102
I1073
tp1102
a(I1103
I959
tp1103
a(I1104
I1036
tp1104
a(I1105
I944
tp1105
a(I1106
I951
tp1106
a(I1107
I981
tp1107
a(I1108
I966
tp1108
a(I1109
I973
tp1109
a(I1110
I1046
tp1110
a(I1111
I993
tp1111
a(I1112
I1018
tp1112
a(I1113
I1010
tp1113
a(I1114
I998
tp1114
a(I1115
I984
tp1115
a(I1116
I1020
tp1116
a(I1117
I1044
tp1117
a(I1118
I980
tp1118
a(I1119
I994
tp1119
a(I1120
I941
tp1120
a(I1121
I1050
tp1121
a(I1122
I1002
tp1122
a(I1123
I1051
tp1123
a(I1124
I989
tp1124
a(I1125
I1003
tp1125
a(I1126
I1060
tp1126
a(I1127
I1005
tp1127
a(I1128
I999
tp1128
a(I1129
I1021
tp1129
a(I1130
I1028
tp1130
a(I1131
I1009
tp1131
a(I1132
I961
tp1132
a(I1133
I963
tp1133
a(I1134
I970
tp1134
a(I1135
I965
tp1135
a(I1136
I1052
tp1136
a(I1137
I1041
tp1137
a(I1138
I1014
tp1138
a(I1139
I997
tp1139
a(I1140
I1078
tp1140
a(I1141
I1098
tp1141
a(I1142
I1023
tp1142
a(I1143
I1
tp1143
a(I1144
I1037
tp1144
a(I1145
I1042
tp1145
a(I1146
I1030
tp1146
a(I1147
I994
tp1147
a(I1148
I1004
tp1148
a(I1149
I1027
tp1149
a(I1150
I1112
tp1150
a(I1151
I1067
tp1151
a(I1152
I1022
tp1152
a(I1153
I968
tp1153
a(I1154
I1024
tp1154
a(I1155
I1106
tp1155
a(I1156
I1094
tp1156
a(I1157
I1069
tp1157
a(I1158
I1017
tp1158
a(I1159
I1057
tp1159
a(I1160
I1025
tp1160
a(I1161
I1079
tp1161
a(I1162
I1043
tp1162
a(I1163
I1072
tp1163
a(I1164
I1068
tp1164
a(I1165
I1034
tp1165
a(I1166
I1086
tp1166
a(I1167
I1019
tp1167
a(I1168
I1032
tp1168
a(I1169
I1054
tp1169
a(I1170
I1066
tp1170
a(I1171
I1029
tp1171
a(I1172
I1071
tp1172
a(I1173
I1035
tp1173
a(I1174
I1125
tp1174
a(I1175
I1001
tp1175
a(I1176
I1058
tp1176
a(I1177
I1133
tp1177
a(I1178
I1133
tp1178
a(I1179
I1049
tp1179
a(I1180
I1038
tp1180
a(I1181
I1026
tp1181
a(I1182
I1031
tp1182
a(I1183
I1110
tp1183
a(I1184
I1065
tp1184
a(I1185
I1056
tp1185
a(I1186
I996
tp1186
a(I1187
I1053
tp1187
a(I1188
I1117
tp1188
a(I1189
I1070
tp1189
a(I1190
I1047
tp1190
a(I1191
I1133
tp1191
a(I1192
I85
tp1192
a(I1193
I1064
tp1193
a(I1194
I1132
tp1194
a(I1195
I1074
tp1195
a(I1196
I1083
tp1196
a(I1197
I1108
tp1197
a(I1198
I1052
tp1198
a(I1199
I1115
tp1199
a(I1200
I1040
tp1200
a(I1201
I1095
tp1201
a(I1202
I1061
tp1202
a(I1203
I1063
tp1203
a(I1204
I1099
tp1204
a(I1205
I1
tp1205
a(I1206
I1134
tp1206
a(I1207
I1048
tp1207
a(I1208
I1062
tp1208
a(I1209
I1030
tp1209
a(I1210
I956
tp1210
a(I1211
I1045
tp1211
a(I1212
I1104
tp1212
a(I1213
I1075
tp1213
a(I1214
I1111
tp1214
a(I1215
I1076
tp1215
a(I1216
I1077
tp1216
a(I1217
I1090
tp1217
a(I1218
I1019
tp1218
a(I1219
I1081
tp1219
a(I1220
I1059
tp1220
a(I1221
I1080
tp1221
a(I1222
I1033
tp1222
a(I1223
I1091
tp1223
a(I1224
I1092
tp1224
a(I1225
I1102
tp1225
a(I1226
I1103
tp1226
a(I1227
I1161
tp1227
a(I1228
I1087
tp1228
a(I1229
I1105
tp1229
a(I1230
I1031
tp1230
a(I1231
I1101
tp1231
a(I1232
I1129
tp1232
a(I1233
I1096
tp1233
a(I1234
I1097
tp1234
a(I1235
I1123
tp1235
a(I1236
I1150
tp1236
a(I1237
I1184
tp1237
a(I1238
I1135
tp1238
a(I1239
I1082
tp1239
a(I1240
I1084
tp1240
a(I1241
I1085
tp1241
a(I1242
I1162
tp1242
a(I1243
I1109
tp1243
a(I1244
I1063
tp1244
a(I1245
I1106
tp1245
a(I1246
I1049
tp1246
a(I1247
I1120
tp1247
a(I1248
I1116
tp1248
a(I1249
I1193
tp1249
a(I1250
I1113
tp1250
a(I1251
I1
tp1251
a(I1252
I1082
tp1252
a(I1253
I1136
tp1253
a(I1254
I1088
tp1254
a(I1255
I1127
tp1255
a(I1256
I1121
tp1256
a(I1257
I1142
tp1257
a(I1258
I1098
tp1258
a(I1259
I1119
tp1259
a(I1260
I1112
tp1260
a(I1261
I1122
tp1261
a(I1262
I1151
tp1262
a(I1263
I1072
tp1263
a(I1264
I1068
tp1264
a(I1265
I1131
tp1265
a(I1266
I1114
tp1266
a(I1267
I1128
tp1267
a(I1268
I1179
tp1268
a(I1269
I1124
tp1269
a(I1270
I1
tp1270
a(I1271
I1
tp1271
a(I1272
I1093
tp1272
a(I1273
I1143
tp1273
a(I1274
I1107
tp1274
a(I1275
I1100
tp1275
a(I1276
I1163
tp1276
a(I1277
I1140
tp1277
a(I1278
I1118
tp1278
a(I1279
I1147
tp1279
a(I1280
I1172
tp1280
a(I1281
I1126
tp1281
a(I1282
I1138
tp1282
a(I1283
I1163
tp1283
a(I1284
I1101
tp1284
a(I1285
I1186
tp1285
a(I1286
I1140
tp1286
a(I1287
I1148
tp1287
a(I1288
I1158
tp1288
a(I1289
I1159
tp1289
a(I1290
I1184
tp1290
a(I1291
I1152
tp1291
a(I1292
I1144
tp1292
a(I1293
I1139
tp1293
a(I1294
I1165
tp1294
a(I1295
I1146
tp1295
a(I1296
I1157
tp1296
a(I1297
I1149
tp1297
a(I1298
I1130
tp1298
a(I1299
I1166
tp1299
a(I1300
I1200
tp1300
a(I1301
I1145
tp1301
a(I1302
I1168
tp1302
a(I1303
I1164
tp1303
a(I1304
I1111
tp1304
a(I1305
I1180
tp1305
a(I1306
I1182
tp1306
a(I1307
I1171
tp1307
a(I1308
I1133
tp1308
a(I1309
I1153
tp1309
a(I1310
I1154
tp1310
a(I1311
I1137
tp1311
a(I1312
I1156
tp1312
a(I1313
I1141
tp1313
a(I1314
I1170
tp1314
a(I1315
I1130
tp1315
a(I1316
I1184
tp1316
a(I1317
I1196
tp1317
a(I1318
I1177
tp1318
a(I1319
I1185
tp1319
a(I1320
I1217
tp1320
a(I1321
I1155
tp1321
a(I1322
I1170
tp1322
a(I1323
I1171
tp1323
a(I1324
I1271
tp1324
a(I1325
I1173
tp1325
a(I1326
I1127
tp1326
a(I1327
I1175
tp1327
a(I1328
I1225
tp1328
a(I1329
I1169
tp1329
a(I1330
I1181
tp1330
a(I1331
I1195
tp1331
a(I1332
I1164
tp1332
a(I1333
I1204
tp1333
a(I1334
I1183
tp1334
a(I1335
I1125
tp1335
a(I1336
I1194
tp1336
a(I1337
I1187
tp1337
a(I1338
I1188
tp1338
a(I1339
I1210
tp1339
a(I1340
I1176
tp1340
a(I1341
I1
tp1341
a(I1342
I1167
tp1342
a(I1343
I1215
tp1343
a(I1344
I1198
tp1344
a(I1345
I1189
tp1345
a(I1346
I1160
tp1346
a(I1347
I1174
tp1347
a(I1348
I1192
tp1348
a(I1349
I1178
tp1349
a(I1350
I1224
tp1350
a(I1351
I1199
tp1351
a(I1352
I1207
tp1352
a(I1353
I1208
tp1353
a(I1354
I1220
tp1354
a(I1355
I1193
tp1355
a(I1356
I1
tp1356
a(I1357
I1191
tp1357
a(I1358
I1209
tp1358
a(I1359
I1222
tp1359
a(I1360
I1203
tp1360
a(I1361
I1196
tp1361
a(I1362
I1201
tp1362
a(I1363
I1205
tp1363
a(I1364
I1197
tp1364
a(I1365
I1211
tp1365
a(I1366
I1190
tp1366
a(I1367
I1206
tp1367
a(I1368
I1195
tp1368
a(I1369
I1212
tp1369
a(I1370
I1213
tp1370
a(I1371
I1237
tp1371
a(I1372
I1214
tp1372
a(I1373
I1236
tp1373
a(I1374
I1216
tp1374
a(I1375
I1217
tp1375
a(I1376
I1190
tp1376
a(I1377
I1202
tp1377
a(I1378
I1226
tp1378
a(I1379
I1
tp1379
a(I1380
I1219
tp1380
a(I1381
I1198
tp1381
a(I1382
I1230
tp1382
a(I1383
I1231
tp1383
a(I1384
I1239
tp1384
a(I1385
I1223
tp1385
a(I1386
I1152
tp1386
a(I1387
I1251
tp1387
a(I1388
I1232
tp1388
a(I1389
I1238
tp1389
a(I1390
I1172
tp1390
a(I1391
I1240
tp1391
a(I1392
I1227
tp1392
a(I1393
I1
tp1393
a(I1394
I1263
tp1394
a(I1395
I1244
tp1395
a(I1396
I1221
tp1396
a(I1397
I1248
tp1397
a(I1398
I1218
tp1398
a(I1399
I1259
tp1399
a(I1400
I1234
tp1400
a(I1401
I1242
tp1401
a(I1402
I1228
tp1402
a(I1403
I1228
tp1403
a(I1404
I1218
tp1404
a(I1405
I1258
tp1405
a(I1406
I1131
tp1406
a(I1407
I1271
tp1407
a(I1408
I1233
tp1408
a(I1409
I1235
tp1409
a(I1410
I1225
tp1410
a(I1411
I1252
tp1411
a(I1412
I1235
tp1412
a(I1413
I1229
tp1413
a(I1414
I1245
tp1414
a(I1415
I1249
tp1415
a(I1416
I1241
tp1416
a(I1417
I1255
tp1417
a(I1418
I1247
tp1418
a(I1419
I1243
tp1419
a(I1420
I1257
tp1420
a(I1421
I1256
tp1421
a(I1422
I1253
tp1422
a(I1423
I1250
tp1423
a(I1424
I1246
tp1424
a(I1425
I1260
tp1425
a(I1426
I1253
tp1426
a(I1427
I1261
tp1427
a(I1428
I1123
tp1428
a(I1429
I1217
tp1429
a(I1430
I1259
tp1430
a(I1431
I1273
tp1431
a(I1432
I1275
tp1432
a(I1433
I1262
tp1433
a(I1434
I1264
tp1434
a(I1435
I1184
tp1435
a(I1436
I1272
tp1436
a(I1437
I1269
tp1437
a(I1438
I1276
tp1438
a(I1439
I1276
tp1439
a(I1440
I1184
tp1440
a(I1441
I1271
tp1441
a(I1442
I1254
tp1442
a(I1443
I1282
tp1443
a(I1444
I1267
tp1444
a(I1445
I1278
tp1445
a(I1446
I1250
tp1446
a(I1447
I1281
tp1447
a(I1448
I1208
tp1448
a(I1449
I1277
tp1449
a(I1450
I1287
tp1450
a(I1451
I1273
tp1451
a(I1452
I1268
tp1452
a(I1453
I1270
tp1453
a(I1454
I1211
tp1454
a(I1455
I1286
tp1455
a(I1456
I1279
tp1456
a(I1457
I1280
tp1457
a(I1458
I1266
tp1458
a(I1459
I1288
tp1459
a(I1460
I1268
tp1460
a(I1461
I1274
tp1461
a(I1462
I1283
tp1462
a(I1463
I1290
tp1463
a(I1464
I1265
tp1464
a(I1465
I1094
tp1465
a(I1466
I1285
tp1466
a(I1467
I1289
tp1467
a(I1468
I1281
tp1468
a(I1469
I1282
tp1469
a(I1470
I1263
tp1470
a(I1471
I1291
tp1471
a(I1472
I1255
tp1472
a(I1473
I1290
tp1473
a(I1474
I1257
tp1474
a(I1475
I1281
tp1475
a(I1476
I1190
tp1476
a(I1477
I1284
tp1477
a(I1478
I1207
tp1478
a(I1479
I1263
tp1479
a(I1480
I1290
tp1480
a(I1481
I1217
tp1481
a(I1482
I1223
tp1482
a(I1483
I1190
tp1483
a(I1484
I1131
tp1484
a(I1485
I1241
tp1485
a(I1486
I1195
tp1486
a(I1487
I1265
tp1487
a(I1488
I1271
tp1488
a(I1489
I1181
tp1489
a(I1490
I1152
tp1490
a(I1491
I1258
tp1491
a(I1492
I1259
tp1492
a(I1493
I1290
tp1493
a(I1494
I1
tp1494
a(I1495
I1255
tp1495
a(I1496
I1228
tp1496
a(I1497
I1
tp1497
a(I1498
I1246
tp1498
a(I1499
I1263
tp1499
a(I1500
I1218
tp1500
a(I1501
I1271
tp1501
a(I1502
I1172
tp1502
a(I1503
I1257
tp1503
a(I1504
I1172
tp1504
a(I1505
I1255
tp1505
a(I1506
I1
tp1506
a(I1507
I1282
tp1507
a(I1508
I1254
tp1508
a(I1509
I1259
tp1509
a(I1510
I1250
tp1510
a(I1511
I1276
tp1511
a(I1512
I1271
tp1512
a(I1513
I1
tp1513
a(I1514
I1276
tp1514
a(I1515
I1284
tp1515
a(I1516
I1131
tp1516
a(I1517
I1255
tp1517
a(I1518
I1290
tp1518
a(I1519
I1223
tp1519
a(I1520
I1241
tp1520
a(I1521
I1281
tp1521
a(I1522
I1282
tp1522
a(I1523
I1223
tp1523
a(I1524
I1
tp1524
a(I1525
I1
tp1525
a(I1526
I1
tp1526
a(I1527
I1258
tp1527
a(I1528
I1
tp1528
a(I1529
I1290
tp1529
a(I1530
I1
tp1530
a(I1531
I1276
tp1531
a(I1532
I1172
tp1532
a(I1533
I1
tp1533
a(I1534
I1
tp1534
a(I1535
I1277
tp1535
a(I1536
I1
tp1536
a(I1537
I1
tp1537
a(I1538
I1
tp1538
a(I1539
I1
tp1539
a(I1540
I1
tp1540
a(I1541
I1
tp1541
a(I1542
I1
tp1542
a(I1543
I1
tp1543
a(I1544
I1
tp1544
a(I1545
I1
tp1545
a(I1546
I1
tp1546
a(I1547
I1
tp1547
a(I1548
I1
tp1548
a(I1549
I1
tp1549
a(I1550
I1
tp1550
a(I1551
I1
tp1551
a(I1552
I1
tp1552
a(I1553
I1
tp1553
a(I1554
I1
tp1554
a(I1555
I1
tp1555
a(I1556
I1
tp1556
a(I1557
I1
tp1557
a(I1558
I1
tp1558
a(I1559
I1
tp1559
a(I1560
I1
tp1560
a(I1561
I1
tp1561
a(I1562
I1
tp1562
a(I1563
I1
tp1563
a(I1564
I1
tp1564
a(I1565
I1
tp1565
a(I1566
I1
tp1566
a(I1567
I1
tp1567
a(I1568
I1
tp1568
a(I1569
I1
tp1569
a(I1570
I1
tp1570
a(I1571
I1
tp1571
a(I1572
I1
tp1572
a(I1573
I1
tp1573
a(I1574
I1
tp1574
a(I1575
I1
tp1575
a(I1576
I1
tp1576
a(I1577
I1
tp1577
a(I1578
I1
tp1578
a(I1579
I1
tp1579
a(I1580
I1
tp1580
a(I1581
I1
tp1581
a(I1582
I1
tp1582
a(I1583
I1
tp1583
a(I1584
I1
tp1584
a(I1585
I1
tp1585
a(I1586
I1
tp1586
a(I1587
I1
tp1587
a(I1588
I1
tp1588
a(I1589
I1
tp1589
a(I1590
I1
tp1590
a(I1591
I1
tp1591
a(I1592
I1
tp1592
a(I1593
I1
tp1593
a(I1594
I1
tp1594
a(I1595
I1
tp1595
a(I1596
I1
tp1596
a(I1597
I1
tp1597
a(I1598
I1
tp1598
a(I1599
I1
tp1599
a(I1600
I1
tp1600
a(I1601
I1
tp1601
a(I1602
I1
tp1602
a(I1603
I1
tp1603
a(I1604
I1
tp1604
a(I1605
I1
tp1605
a(I1606
I1
tp1606
a(I1607
I1
tp1607
a(I1608
I1
tp1608
a(I1609
I1
tp1609
a(I1610
I1
tp1610
a(I1611
I1
tp1611
a(I1612
I1
tp1612
a(I1613
I1
tp1613
a(I1614
I1
tp1614
a(I1615
I1
tp1615
a(I1616
I1
tp1616
a(I1617
I1
tp1617
a(I1618
I1
tp1618
a(I1619
I1
tp1619
a(I1620
I1
tp1620
a(I1621
I1
tp1621
a(lp1622
cnumpy.core.multiarray
scalar
p1623
(cnumpy
dtype
p1624
(S'f4'
I0
I1
tRp1625
(I3
S'<'
NNNI-1
I-1
I0
tbS'\xd714?'
tRp1626
ag1623
(g1625
S'A\xa2\xb7<'
tRp1627
ag1623
(g1625
S'\x18\xce\xb0<'
tRp1628
ag1623
(g1625
S'T#\xce<'
tRp1629
ag1623
(g1625
S'\x01^\xe9?'
tRp1630
ag1623
(g1625
S'\xed\xc1\xea='
tRp1631
ag1623
(g1625
S'$V\xe9?'
tRp1632
ag1623
(g1625
S'Z\x05\r>'
tRp1633
ag1623
(g1625
S'\x93\xf5\xee?'
tRp1634
ag1623
(g1625
S'\x15\x9e\xf0?'
tRp1635
ag1623
(g1625
S'4+\xe6?'
tRp1636
ag1623
(g1625
S'D\x0c\xf2?'
tRp1637
ag1623
(g1625
S'\x96\xc9\x95='
tRp1638
ag1623
(g1625
S'\xc8T>='
tRp1639
ag1623
(g1625
S'\x85\xee+9'
tRp1640
ag1623
(g1625
S'\x06\t\xd7?'
tRp1641
ag1623
(g1625
S'\x88\x99\xa3;'
tRp1642
ag1623
(g1625
S'3*\xcb>'
tRp1643
ag1623
(g1625
S'\x89Y\xf3?'
tRp1644
ag1623
(g1625
S'@\x12\xe5?'
tRp1645
ag1623
(g1625
S'\xfcX\xb98'
tRp1646
ag1623
(g1625
S'\x12\x80\xf7?'
tRp1647
ag1623
(g1625
S'\xe1\xe9\x9a='
tRp1648
ag1623
(g1625
S'\xfa\xa8\xea?'
tRp1649
ag1623
(g1625
S'cw1<'
tRp1650
ag1623
(g1625
S'\xb8\xab\xf1?'
tRp1651
ag1623
(g1625
S'a]\x84='
tRp1652
ag1623
(g1625
S'\xab\xfb\xeb?'
tRp1653
ag1623
(g1625
S'_\xf2\xda>'
tRp1654
ag1623
(g1625
S'}\xc3q='
tRp1655
ag1623
(g1625
S'\xc5\x0e6?'
tRp1656
ag1623
(g1625
S'\xf7\xbd\r>'
tRp1657
ag1623
(g1625
S'|W\x83='
tRp1658
ag1623
(g1625
S'\xe4j\xe1?'
tRp1659
ag1623
(g1625
S'\n\xbf\xb9?'
tRp1660
ag1623
(g1625
S'\xb34\x8d;'
tRp1661
ag1623
(g1625
S'\x1f\xd4\xd2?'
tRp1662
ag1623
(g1625
S'3^\x8f>'
tRp1663
ag1623
(g1625
S'\xbf\x00\x96?'
tRp1664
ag1623
(g1625
S'a\xdc\xb4='
tRp1665
ag1623
(g1625
S'\x19\xc2\xf7?'
tRp1666
ag1623
(g1625
S'\xc9`\xe9?'
tRp1667
ag1623
(g1625
S'\xd4!\xd1?'
tRp1668
ag1623
(g1625
S'\xc0j\xed?'
tRp1669
ag1623
(g1625
S'\xd2\xf3\xbb>'
tRp1670
ag1623
(g1625
S'\xb8\x8e\xc6='
tRp1671
ag1623
(g1625
S'\xbcU\xe7?'
tRp1672
ag1623
(g1625
S"'$\xc5?"
tRp1673
ag1623
(g1625
S'\x14\x03\x808'
tRp1674
ag1623
(g1625
S'\xf5\xff\xa6='
tRp1675
ag1623
(g1625
S'\x81\xe1\x1c='
tRp1676
ag1623
(g1625
S'\x81/\xf3?'
tRp1677
ag1623
(g1625
S'\xb5\xb2\x95?'
tRp1678
ag1623
(g1625
S'S\x12\xef?'
tRp1679
ag1623
(g1625
S'T\xb5\xed?'
tRp1680
ag1623
(g1625
S'r\x04\x9c>'
tRp1681
ag1623
(g1625
S';\xd7\x18>'
tRp1682
ag1623
(g1625
S'i\xd0N>'
tRp1683
ag1623
(g1625
S'\xae\x18\xea?'
tRp1684
ag1623
(g1625
S'\x19v\xe9?'
tRp1685
ag1623
(g1625
S'"\xcd\xe5?'
tRp1686
ag1623
(g1625
S'\x8cS\xf1?'
tRp1687
ag1623
(g1625
S'\xec^\xd6?'
tRp1688
ag1623
(g1625
S'#y\xd6?'
tRp1689
ag1623
(g1625
S'\xddJ\x81?'
tRp1690
ag1623
(g1625
S'd\xcd*>'
tRp1691
ag1623
(g1625
S'~\xd5\xe6?'
tRp1692
ag1623
(g1625
S'\xd4o\xa8<'
tRp1693
ag1623
(g1625
S'O\xd0\xf3?'
tRp1694
ag1623
(g1625
S'"x\xf0?'
tRp1695
ag1623
(g1625
S'^\x91\xd6?'
tRp1696
ag1623
(g1625
S'\x11\x18\x1a9'
tRp1697
ag1623
(g1625
S'\x0b@\xe7?'
tRp1698
ag1623
(g1625
S'\xfc@\xee?'
tRp1699
ag1623
(g1625
S'\r\x07C?'
tRp1700
ag1623
(g1625
S"'\xc2\xd0="
tRp1701
ag1623
(g1625
S'\x04\xeb\x11='
tRp1702
ag1623
(g1625
S'\x90\xe6\\?'
tRp1703
ag1623
(g1625
S'\xac\x89\x14<'
tRp1704
ag1623
(g1625
S'"\xae\xf0?'
tRp1705
ag1623
(g1625
S'\x0bJ\x9d?'
tRp1706
ag1623
(g1625
S'\xa7]\xea?'
tRp1707
ag1623
(g1625
S'\xba\xe1\xea?'
tRp1708
ag1623
(g1625
S'8\xad.?'
tRp1709
ag1623
(g1625
S'\x97\xa5\xec?'
tRp1710
ag1623
(g1625
S'lE;>'
tRp1711
ag1623
(g1625
S'\xc3\x84\xe8?'
tRp1712
ag1623
(g1625
S'lu\xe0?'
tRp1713
ag1623
(g1625
S' \xd3\xf2?'
tRp1714
ag1623
(g1625
S'\x12\x87\xf0?'
tRp1715
ag1623
(g1625
S'\x9f\x96\x8c?'
tRp1716
ag1623
(g1625
S'o\x18\xed?'
tRp1717
ag1623
(g1625
S'B\x97g8'
tRp1718
ag1623
(g1625
S'\x917\xdf='
tRp1719
ag1623
(g1625
S'\xce\xd1\xbb?'
tRp1720
ag1623
(g1625
S'\xc5\x87\xf0?'
tRp1721
ag1623
(g1625
S'\xe8\xd8\xe5?'
tRp1722
ag1623
(g1625
S'B\x99\xf5?'
tRp1723
ag1623
(g1625
S'\x05\x81\xe9?'
tRp1724
ag1623
(g1625
S'\xcc"\xeb?'
tRp1725
ag1623
(g1625
S'\xbd3\xf1?'
tRp1726
ag1623
(g1625
S'\xeb\x8f\xef?'
tRp1727
ag1623
(g1625
S'\xac.\xd8?'
tRp1728
ag1623
(g1625
S'd`\x13;'
tRp1729
ag1623
(g1625
S'Nn\x88='
tRp1730
ag1623
(g1625
S'\xe8\x01\xf1?'
tRp1731
ag1623
(g1625
S'\xeb\x01\xef?'
tRp1732
ag1623
(g1625
S'\xf6\xd1\xf3?'
tRp1733
ag1623
(g1625
S'p\xcd\x08='
tRp1734
ag1623
(g1625
S'U\xdf\xe7?'
tRp1735
ag1623
(g1625
S'3}\xe5?'
tRp1736
ag1623
(g1625
S'\xc6\xa7\xd6?'
tRp1737
ag1623
(g1625
S'\xb7d\xeb?'
tRp1738
ag1623
(g1625
S'O\xae\xeb='
tRp1739
ag1623
(g1625
S'\xa6\xd0\xf2?'
tRp1740
ag1623
(g1625
S';\x84\xea?'
tRp1741
ag1623
(g1625
S'1S\xbf='
tRp1742
ag1623
(g1625
S'\x1f\xad\xd6?'
tRp1743
ag1623
(g1625
S']\xba\xef?'
tRp1744
ag1623
(g1625
S'\xd6\\\xfe='
tRp1745
ag1623
(g1625
S'\n\xba\xed?'
tRp1746
ag1623
(g1625
S'\xb1\x8f\xe2='
tRp1747
ag1623
(g1625
S'\xa0\xba\xe9?'
tRp1748
ag1623
(g1625
S'\xe8\xc1\xfa='
tRp1749
ag1623
(g1625
S'7b\xea?'
tRp1750
ag1623
(g1625
S'\xb3\x06\xfd7'
tRp1751
ag1623
(g1625
S'u\xa9\xeb?'
tRp1752
ag1623
(g1625
S'\x04\x06\xe2?'
tRp1753
ag1623
(g1625
S'\xaa\xfa\xf4?'
tRp1754
ag1623
(g1625
S'\x18\xf1\xe5?'
tRp1755
ag1623
(g1625
S'\xcb\x15\xf7?'
tRp1756
ag1623
(g1625
S'\xd4w\xef?'
tRp1757
ag1623
(g1625
S'\x02n\xe9?'
tRp1758
ag1623
(g1625
S'2\xe4\xef?'
tRp1759
ag1623
(g1625
S'\x14q\xcf?'
tRp1760
ag1623
(g1625
S'\x020\xd7?'
tRp1761
ag1623
(g1625
S'\xe1\x8f\xd1<'
tRp1762
ag1623
(g1625
S'%IG>'
tRp1763
ag1623
(g1625
S'9\xf8\x989'
tRp1764
ag1623
(g1625
S'C\x97u?'
tRp1765
ag1623
(g1625
S'/\xc4\xeb?'
tRp1766
ag1623
(g1625
S',\xa1\xed?'
tRp1767
ag1623
(g1625
S'mEI='
tRp1768
ag1623
(g1625
S'\xa8?*>'
tRp1769
ag1623
(g1625
S'\xd5\xd7\xef='
tRp1770
ag1623
(g1625
S'\xf5G\xee?'
tRp1771
ag1623
(g1625
S'\xcd\x17\xe7?'
tRp1772
ag1623
(g1625
S'\x9c\xa8\xee?'
tRp1773
ag1623
(g1625
S"\xfa\xbd'?"
tRp1774
ag1623
(g1625
S'\x8a\xf8\xca?'
tRp1775
ag1623
(g1625
S'f$\xf4?'
tRp1776
ag1623
(g1625
S'c\x17\xf0?'
tRp1777
ag1623
(g1625
S'\xdab\xeb?'
tRp1778
ag1623
(g1625
S'\x86\x95\xef?'
tRp1779
ag1623
(g1625
S'9U\xeb?'
tRp1780
ag1623
(g1625
S'r,\xe8>'
tRp1781
ag1623
(g1625
S'\xe37\xf0?'
tRp1782
ag1623
(g1625
S's\xa0\xdf?'
tRp1783
ag1623
(g1625
S'4d\xf0?'
tRp1784
ag1623
(g1625
S'\xd3 \x97<'
tRp1785
ag1623
(g1625
S'\xe2\xca\xeb?'
tRp1786
ag1623
(g1625
S'\x15\xef\xec?'
tRp1787
ag1623
(g1625
S'+\xfe\xf0?'
tRp1788
ag1623
(g1625
S'\x07}\xf3?'
tRp1789
ag1623
(g1625
S'\xbd\xd3\xde>'
tRp1790
ag1623
(g1625
S'\xca\x13\xf5?'
tRp1791
ag1623
(g1625
S'5\xb3\xe1?'
tRp1792
ag1623
(g1625
S'o\x9b\xdf?'
tRp1793
ag1623
(g1625
S'M\xa2\xf3?'
tRp1794
ag1623
(g1625
S'h,\xed?'
tRp1795
ag1623
(g1625
S'z\xc9\xc7?'
tRp1796
ag1623
(g1625
S'\xee\x13\xa5='
tRp1797
ag1623
(g1625
S'\xd4`\xec?'
tRp1798
ag1623
(g1625
S'N&\xf0?'
tRp1799
ag1623
(g1625
S'\x11\xa4)?'
tRp1800
ag1623
(g1625
S'\x1f|\xed?'
tRp1801
ag1623
(g1625
S'e\xb9\xaf?'
tRp1802
ag1623
(g1625
S'\xa6\xda\xe0?'
tRp1803
ag1623
(g1625
S'\xee\xf1q?'
tRp1804
ag1623
(g1625
S'\xe1\x0e\xec?'
tRp1805
ag1623
(g1625
S'\x81\x1cm>'
tRp1806
ag1623
(g1625
S'\x18\x86\xf1?'
tRp1807
ag1623
(g1625
S'\xd1\x9d\xca='
tRp1808
ag1623
(g1625
S'\xf1\xfa\xe1?'
tRp1809
ag1623
(g1625
S'M\x94\x94;'
tRp1810
ag1623
(g1625
S'\xd8\x990='
tRp1811
ag1623
(g1625
S'\x05\xed\xdc?'
tRp1812
ag1623
(g1625
S'\x1e\xca\xd6?'
tRp1813
ag1623
(g1625
S'N\xe2\xdd?'
tRp1814
ag1623
(g1625
S'\x8f\n\xe7?'
tRp1815
ag1623
(g1625
S'\xec\xe7\xac='
tRp1816
ag1623
(g1625
S'7\x8d\xf0?'
tRp1817
ag1623
(g1625
S'>\xa3\xd8?'
tRp1818
ag1623
(g1625
S'K\x04\x82>'
tRp1819
ag1623
(g1625
S'\x11P\xde?'
tRp1820
ag1623
(g1625
S'K\x0b\xe2?'
tRp1821
ag1623
(g1625
S'p\x0b\xea?'
tRp1822
ag1623
(g1625
S'\x1d\x83\xdb?'
tRp1823
ag1623
(g1625
S'+W\xd7?'
tRp1824
ag1623
(g1625
S'\xf4\xfb\xf4?'
tRp1825
ag1623
(g1625
S'\x97S\xee?'
tRp1826
ag1623
(g1625
S'\xa5E\xe6?'
tRp1827
ag1623
(g1625
S'\x988\xe6?'
tRp1828
ag1623
(g1625
S'\xd5\xe3\xef?'
tRp1829
ag1623
(g1625
S'#\x97\xbd?'
tRp1830
ag1623
(g1625
S'\xf1\xda\xdb?'
tRp1831
ag1623
(g1625
S'\xa2\xf0\xb1?'
tRp1832
ag1623
(g1625
S'^*\xed?'
tRp1833
ag1623
(g1625
S'\xa2\xd4\xe6?'
tRp1834
ag1623
(g1625
S'\x1a\x9e\xe0?'
tRp1835
ag1623
(g1625
S'\xa6\x94\xed?'
tRp1836
ag1623
(g1625
S'\xd3x\xf6?'
tRp1837
ag1623
(g1625
S's\xec\x04?'
tRp1838
ag1623
(g1625
S'}p\xe1?'
tRp1839
ag1623
(g1625
S'\xdd\xa0\x9c='
tRp1840
ag1623
(g1625
S'\xc2\t\xe5?'
tRp1841
ag1623
(g1625
S'\x92\x02\xec?'
tRp1842
ag1623
(g1625
S'>\xe2\xe8?'
tRp1843
ag1623
(g1625
S'\xa4\xfd\xde?'
tRp1844
ag1623
(g1625
S'?y\xd7?'
tRp1845
ag1623
(g1625
S'n\x06\xed?'
tRp1846
ag1623
(g1625
S'\xea\xdc\xeb?'
tRp1847
ag1623
(g1625
S'\xd02\xde?'
tRp1848
ag1623
(g1625
S'h=\xdd?'
tRp1849
ag1623
(g1625
S'\xe4\xd8\xf4?'
tRp1850
ag1623
(g1625
S'\xbc\xf1\xe8?'
tRp1851
ag1623
(g1625
S'5\xc6\xe6?'
tRp1852
ag1623
(g1625
S'\x17\x17\xed?'
tRp1853
ag1623
(g1625
S'\xf5\x8d\xf2?'
tRp1854
ag1623
(g1625
S'E\xca\x94>'
tRp1855
ag1623
(g1625
S'\x88\xf4\xee?'
tRp1856
ag1623
(g1625
S'\x00&\xf6;'
tRp1857
ag1623
(g1625
S'G\x90\x19?'
tRp1858
ag1623
(g1625
S'\xab\xe5\x96>'
tRp1859
ag1623
(g1625
S'\xc2U\xe2?'
tRp1860
ag1623
(g1625
S'3\xfb\xec?'
tRp1861
ag1623
(g1625
S'\xf1\x9a\x8e?'
tRp1862
ag1623
(g1625
S';S\xde?'
tRp1863
ag1623
(g1625
S'9\x99\xe4?'
tRp1864
ag1623
(g1625
S'\xfe\x7f\xe2?'
tRp1865
ag1623
(g1625
S'\x87\xbf\x8e?'
tRp1866
ag1623
(g1625
S'xR\xf0?'
tRp1867
ag1623
(g1625
S'\xc9\xe9\xc3?'
tRp1868
ag1623
(g1625
S'\xf3\x15\xed?'
tRp1869
ag1623
(g1625
S'\xf8s\xdf?'
tRp1870
ag1623
(g1625
S'\x0c\xc2\xea?'
tRp1871
ag1623
(g1625
S'\xbc9\xec?'
tRp1872
ag1623
(g1625
S'\x9e\xf4\xf3?'
tRp1873
ag1623
(g1625
S'\x0cf\xe7?'
tRp1874
ag1623
(g1625
S'\xd1K\xd4?'
tRp1875
ag1623
(g1625
S'\xc9\xbc\xea?'
tRp1876
ag1623
(g1625
S'~\xec\xed?'
tRp1877
ag1623
(g1625
S'\xc7:\xee?'
tRp1878
ag1623
(g1625
S'"e\xf0?'
tRp1879
ag1623
(g1625
S'0&\xe2?'
tRp1880
ag1623
(g1625
S'\x1d\x7f\xd7?'
tRp1881
ag1623
(g1625
S'\xa8m\xe9?'
tRp1882
ag1623
(g1625
S'\x0c\xdd\xd5?'
tRp1883
ag1623
(g1625
S'\x0f\xc1\xd8?'
tRp1884
ag1623
(g1625
S'C\xc5\xf0?'
tRp1885
ag1623
(g1625
S'\xc6Y\xe4?'
tRp1886
ag1623
(g1625
S'\xc5\x82\xe8?'
tRp1887
ag1623
(g1625
S'\xa5\xc8\xc0?'
tRp1888
ag1623
(g1625
S'\xe5\x9b\xe5?'
tRp1889
ag1623
(g1625
S'\xae\xf7\xeb?'
tRp1890
ag1623
(g1625
S'\xba\x9b)9'
tRp1891
ag1623
(g1625
S'\xf6\x9f\xdb?'
tRp1892
ag1623
(g1625
S'\x19\xcc\xf0?'
tRp1893
ag1623
(g1625
S'Zi\xe8?'
tRp1894
ag1623
(g1625
S'`:\xed?'
tRp1895
ag1623
(g1625
S'\x91G\xa7?'
tRp1896
ag1623
(g1625
S'\x85@\xe4?'
tRp1897
ag1623
(g1625
S'\x14a\xf88'
tRp1898
ag1623
(g1625
S'\xcb\x81\xd8?'
tRp1899
ag1623
(g1625
S'\xb9\xc7\x8a?'
tRp1900
ag1623
(g1625
S'!\x7f\xe0?'
tRp1901
ag1623
(g1625
S'i\xa8\xda?'
tRp1902
ag1623
(g1625
S'x)\xc0?'
tRp1903
ag1623
(g1625
S'\xf9\xf4\xd6?'
tRp1904
ag1623
(g1625
S'\xc7\x9f\xd1?'
tRp1905
ag1623
(g1625
S'L-k?'
tRp1906
ag1623
(g1625
S'\xf8\xae\xc6?'
tRp1907
ag1623
(g1625
S'P\x19\xd7?'
tRp1908
ag1623
(g1625
S'\x95\xd1\xeb?'
tRp1909
ag1623
(g1625
S'pr\xe1?'
tRp1910
ag1623
(g1625
S'\x1b\x0c\xef?'
tRp1911
ag1623
(g1625
S'\xfb\xd2\xab?'
tRp1912
ag1623
(g1625
S'}\xd3\xe8?'
tRp1913
ag1623
(g1625
S'\xb6\xae\xe0?'
tRp1914
ag1623
(g1625
S'D\xe7\xe4?'
tRp1915
ag1623
(g1625
S'\xa4q\xea?'
tRp1916
ag1623
(g1625
S'\xa4\xe5\xa7?'
tRp1917
ag1623
(g1625
S'\xbe]\xec>'
tRp1918
ag1623
(g1625
S'Y\xc4\xeb?'
tRp1919
ag1623
(g1625
S'\x887\xec?'
tRp1920
ag1623
(g1625
S'S0\xdc?'
tRp1921
ag1623
(g1625
S'\xfe.\xf1?'
tRp1922
ag1623
(g1625
S'\xe9\xd4\xe7?'
tRp1923
ag1623
(g1625
S'\ts\xde?'
tRp1924
ag1623
(g1625
S'\xef\xb3t?'
tRp1925
ag1623
(g1625
S'\xa7\x03\x9f?'
tRp1926
ag1623
(g1625
S'=@\xe3?'
tRp1927
ag1623
(g1625
S'\x85\xe3\xe4?'
tRp1928
ag1623
(g1625
S'{\xf2\xe5?'
tRp1929
ag1623
(g1625
S'\xef\x92~?'
tRp1930
ag1623
(g1625
S'\xa4\x82\xe8?'
tRp1931
ag1623
(g1625
S'|\xac\xe7?'
tRp1932
ag1623
(g1625
S'\xdb\xda\xdd?'
tRp1933
ag1623
(g1625
S'\xd3r\xaf?'
tRp1934
ag1623
(g1625
S'y\x95\xe8?'
tRp1935
ag1623
(g1625
S'W\x12\xa2?'
tRp1936
ag1623
(g1625
S'\x1aV\xe8?'
tRp1937
ag1623
(g1625
S'!,\xed?'
tRp1938
ag1623
(g1625
S'8M\xe7?'
tRp1939
ag1623
(g1625
S'\xec\x08\xea?'
tRp1940
ag1623
(g1625
S'\xc7#\xc3?'
tRp1941
ag1623
(g1625
S"\xd1'\x7f?"
tRp1942
ag1623
(g1625
S'\xd2\x1c\x9a9'
tRp1943
ag1623
(g1625
S'z\n\x88?'
tRp1944
ag1623
(g1625
S'w\x80\x8e?'
tRp1945
ag1623
(g1625
S'\xdf\x03\xea?'
tRp1946
ag1623
(g1625
S'v6\xe6?'
tRp1947
ag1623
(g1625
S'\x0el\xcf?'
tRp1948
ag1623
(g1625
S'\x1bc\xe8?'
tRp1949
ag1623
(g1625
S'\x95F\xf4?'
tRp1950
ag1623
(g1625
S'<I\xd5?'
tRp1951
ag1623
(g1625
S'\x852\xe5?'
tRp1952
ag1623
(g1625
S'\x08\xc4\x99?'
tRp1953
ag1623
(g1625
S'sP\xda?'
tRp1954
ag1623
(g1625
S'\x88v\x81?'
tRp1955
ag1623
(g1625
S's\xe1\xe8?'
tRp1956
ag1623
(g1625
S']_\xf3?'
tRp1957
ag1623
(g1625
S'\x185\xef?'
tRp1958
ag1623
(g1625
S'\xf8\x97\xe6?'
tRp1959
ag1623
(g1625
S'\x15\x19\xde?'
tRp1960
ag1623
(g1625
S'\x9f\xf3\xeb?'
tRp1961
ag1623
(g1625
S'\x18#\xdd?'
tRp1962
ag1623
(g1625
S'\xe09\xee?'
tRp1963
ag1623
(g1625
S'i\x8e\xec?'
tRp1964
ag1623
(g1625
S'\x90h\xf2?'
tRp1965
ag1623
(g1625
S'\xef\xd1\xe6?'
tRp1966
ag1623
(g1625
S'\xc0\x13\xdc?'
tRp1967
ag1623
(g1625
S'\xe9I\xee?'
tRp1968
ag1623
(g1625
S'\xb1\xe0\xda?'
tRp1969
ag1623
(g1625
S'\xeb\x0b\xd9?'
tRp1970
ag1623
(g1625
S'97\xec?'
tRp1971
ag1623
(g1625
S'\x12\xbf\xea?'
tRp1972
ag1623
(g1625
S'+\x19\xe2?'
tRp1973
ag1623
(g1625
S'qU\xaf?'
tRp1974
ag1623
(g1625
S'\xefW\xdc?'
tRp1975
ag1623
(g1625
S'2(\xe7?'
tRp1976
ag1623
(g1625
S'\xb5S\xe3?'
tRp1977
ag1623
(g1625
S'#\xd8\xe5?'
tRp1978
ag1623
(g1625
S'\xf6\xdb\xd8?'
tRp1979
ag1623
(g1625
S'=\xd1\xe3?'
tRp1980
ag1623
(g1625
S'\xf9\xe3\xdc?'
tRp1981
ag1623
(g1625
S'\xb1\x0f\xe8?'
tRp1982
ag1623
(g1625
S'\xa3\xba\xe3?'
tRp1983
ag1623
(g1625
S'\x06\xa0\xee?'
tRp1984
ag1623
(g1625
S'u6\xe8?'
tRp1985
ag1623
(g1625
S'~\x97\xdf?'
tRp1986
ag1623
(g1625
S'!^\xdf?'
tRp1987
ag1623
(g1625
S'\xdb\xbc\xb1?'
tRp1988
ag1623
(g1625
S'\xc8\xef\xec?'
tRp1989
ag1623
(g1625
S'TD\xde?'
tRp1990
ag1623
(g1625
S'J\x08\xbc?'
tRp1991
ag1623
(g1625
S'\xda\xfe\xaf?'
tRp1992
ag1623
(g1625
S'\t`\xee?'
tRp1993
ag1623
(g1625
S'\xe6\xe0\xd4?'
tRp1994
ag1623
(g1625
S'KX\xd6?'
tRp1995
ag1623
(g1625
S'B\xdc\xec?'
tRp1996
ag1623
(g1625
S'\x96\xf5\xef?'
tRp1997
ag1623
(g1625
S'\xf8\xd9\xe5?'
tRp1998
ag1623
(g1625
S':\x19\xe9?'
tRp1999
ag1623
(g1625
S'\x80\x13\xe8?'
tRp2000
ag1623
(g1625
S'\xcd/\xde?'
tRp2001
ag1623
(g1625
S'\xde\x03\xe2>'
tRp2002
ag1623
(g1625
S'\xf2\xa35?'
tRp2003
ag1623
(g1625
S'\xeb\x08\xd0?'
tRp2004
ag1623
(g1625
S'\xf4\xcf\xe0?'
tRp2005
ag1623
(g1625
S'HQ\xf2?'
tRp2006
ag1623
(g1625
S'6\xb8\xd8?'
tRp2007
ag1623
(g1625
S'u\xbc\xe1?'
tRp2008
ag1623
(g1625
S'O:\xdf?'
tRp2009
ag1623
(g1625
S'\x81\xdb\xd7?'
tRp2010
ag1623
(g1625
S'\xeb\r\xdf?'
tRp2011
ag1623
(g1625
S'\xb5\xa1\xe9?'
tRp2012
ag1623
(g1625
S'\xff\xb6\xea?'
tRp2013
ag1623
(g1625
S'\x13\x1b\xdf?'
tRp2014
ag1623
(g1625
S'\xedq\xd9?'
tRp2015
ag1623
(g1625
S'E`\xde?'
tRp2016
ag1623
(g1625
S'h\xdb\xde?'
tRp2017
ag1623
(g1625
S'\xb2\x17\xd7?'
tRp2018
ag1623
(g1625
S'\xa3\x95\xe2?'
tRp2019
ag1623
(g1625
S'.\xd0\x81?'
tRp2020
ag1623
(g1625
S'\xae\xcd\xe8?'
tRp2021
ag1623
(g1625
S'\xd9\x98\xea?'
tRp2022
ag1623
(g1625
S'\xfd\xe8\xe3?'
tRp2023
ag1623
(g1625
S'{\xb6\xe5?'
tRp2024
ag1623
(g1625
S'w\xfd\xe7?'
tRp2025
ag1623
(g1625
S'{\xb6\xe3?'
tRp2026
ag1623
(g1625
S"'\xa9\x80?"
tRp2027
ag1623
(g1625
S'e\xe4\xe5?'
tRp2028
ag1623
(g1625
S'au\xd0?'
tRp2029
ag1623
(g1625
S'^A\xe8?'
tRp2030
ag1623
(g1625
S'\xca\xa9\xcb?'
tRp2031
ag1623
(g1625
S'\x105\xed?'
tRp2032
ag1623
(g1625
S'\xa35\xee?'
tRp2033
ag1623
(g1625
S'\x82\xbb\xe5?'
tRp2034
ag1623
(g1625
S'eE\xe9?'
tRp2035
ag1623
(g1625
S',9\xee?'
tRp2036
ag1623
(g1625
S'{o\xef?'
tRp2037
ag1623
(g1625
S'\xaf\xd6\xe5?'
tRp2038
ag1623
(g1625
S'\xe4\xca\xe0?'
tRp2039
ag1623
(g1625
S'A\xb1\xe1?'
tRp2040
ag1623
(g1625
S'o\x0b\xf4?'
tRp2041
ag1623
(g1625
S'G3\xcf?'
tRp2042
ag1623
(g1625
S'%\xce\xe8?'
tRp2043
ag1623
(g1625
S'7\xc4\xee?'
tRp2044
ag1623
(g1625
S'9<\xdb?'
tRp2045
ag1623
(g1625
S'\x9a}\xf0?'
tRp2046
ag1623
(g1625
S"-'\xe6?"
tRp2047
ag1623
(g1625
S'99D:'
tRp2048
ag1623
(g1625
S'd\xc4\xe7?'
tRp2049
ag1623
(g1625
S'\xe6V{9'
tRp2050
ag1623
(g1625
S'\xb0b\xf6?'
tRp2051
ag1623
(g1625
S'\x8el\xfe>'
tRp2052
ag1623
(g1625
S'\xf5\xb4\xe2?'
tRp2053
ag1623
(g1625
S'\xcfS\xd7?'
tRp2054
ag1623
(g1625
S'\xbe\x97\xd7?'
tRp2055
ag1623
(g1625
S'\x12\x8eb?'
tRp2056
ag1623
(g1625
S'd\nj?'
tRp2057
ag1623
(g1625
S'<i\xed?'
tRp2058
ag1623
(g1625
S'\x8b\xee\xe4?'
tRp2059
ag1623
(g1625
S'\x04`\xeb9'
tRp2060
ag1623
(g1625
S'\xd6kW<'
tRp2061
ag1623
(g1625
S' \x84\xea?'
tRp2062
ag1623
(g1625
S'Y/\xef?'
tRp2063
ag1623
(g1625
S'\xab\x14\xe7?'
tRp2064
ag1623
(g1625
S'\x1c\xe4\xe4?'
tRp2065
ag1623
(g1625
S'4\xd6\xe8?'
tRp2066
ag1623
(g1625
S'9\x17\xf4?'
tRp2067
ag1623
(g1625
S'\xf3\xdb\xe7?'
tRp2068
ag1623
(g1625
S'$\x13\xd9?'
tRp2069
ag1623
(g1625
S'\xbfi\xed?'
tRp2070
ag1623
(g1625
S'\x8dj\xed?'
tRp2071
ag1623
(g1625
S'\xbbO\xcc?'
tRp2072
ag1623
(g1625
S'/Z\xf6?'
tRp2073
ag1623
(g1625
S'\x95i\xf5?'
tRp2074
ag1623
(g1625
S'\n\x18\xf4?'
tRp2075
ag1623
(g1625
S'e\x94\xf4?'
tRp2076
ag1623
(g1625
S'\xeb\x91\xe8?'
tRp2077
ag1623
(g1625
S'(\xa9\xe2?'
tRp2078
ag1623
(g1625
S'T\xc4\xe5?'
tRp2079
ag1623
(g1625
S'\x8a\xa2\x9c?'
tRp2080
ag1623
(g1625
S'\xeb\xb3\xeb?'
tRp2081
ag1623
(g1625
S'\xe5\xe3\xee?'
tRp2082
ag1623
(g1625
S'\x14\xb6\xf2?'
tRp2083
ag1623
(g1625
S'\x93\x06\xf2?'
tRp2084
ag1623
(g1625
S'm]\xeb?'
tRp2085
ag1623
(g1625
S'\xb2\x82\xcf?'
tRp2086
ag1623
(g1625
S'I`\xe5?'
tRp2087
ag1623
(g1625
S'\t\xaa\xee?'
tRp2088
ag1623
(g1625
S'a\x8f\xe8?'
tRp2089
ag1623
(g1625
S'\xc64\xdb?'
tRp2090
ag1623
(g1625
S'\x10\x8e\xf0?'
tRp2091
ag1623
(g1625
S'y\xae\xe4?'
tRp2092
ag1623
(g1625
S'\xccQ\xf2?'
tRp2093
ag1623
(g1625
S'\x99\x05\x8e?'
tRp2094
ag1623
(g1625
S'\xfeu\xf0?'
tRp2095
ag1623
(g1625
S'\xef\xc9\xea?'
tRp2096
ag1623
(g1625
S'\x01\xb50?'
tRp2097
ag1623
(g1625
S'\x0e\x86\xf4?'
tRp2098
ag1623
(g1625
S'\x9b\x88\xf0?'
tRp2099
ag1623
(g1625
S'2\x175?'
tRp2100
ag1623
(g1625
S'\x0cX\xdf?'
tRp2101
ag1623
(g1625
S'\xf9>\xe6?'
tRp2102
ag1623
(g1625
S'\xf7N\xd7?'
tRp2103
ag1623
(g1625
S'p\n\xe9?'
tRp2104
ag1623
(g1625
S'j8=?'
tRp2105
ag1623
(g1625
S'>\xbd\xbb?'
tRp2106
ag1623
(g1625
S')i\x9e?'
tRp2107
ag1623
(g1625
S'\xbf\xca\xf0?'
tRp2108
ag1623
(g1625
S'\xfb@\xec?'
tRp2109
ag1623
(g1625
S'\x86;\xf4?'
tRp2110
ag1623
(g1625
S'w\x8f\xe6?'
tRp2111
ag1623
(g1625
S'\xf2"\xa5?'
tRp2112
ag1623
(g1625
S'\xf6\x15\xf2?'
tRp2113
ag1623
(g1625
S'\xa7\x9c\xf0?'
tRp2114
ag1623
(g1625
S'<_\xf0?'
tRp2115
ag1623
(g1625
S'V[\xe8?'
tRp2116
ag1623
(g1625
S'\xd0\x8e\xe8?'
tRp2117
ag1623
(g1625
S'\xaa:\xf2?'
tRp2118
ag1623
(g1625
S'X\xf6K?'
tRp2119
ag1623
(g1625
S'\xdd\n\xe6?'
tRp2120
ag1623
(g1625
S'V\xd9\xee?'
tRp2121
ag1623
(g1625
S'],m?'
tRp2122
ag1623
(g1625
S'\x10\xa4\xf0?'
tRp2123
ag1623
(g1625
S'&C\xe4?'
tRp2124
ag1623
(g1625
S'1\xa2\xe9?'
tRp2125
ag1623
(g1625
S'2\x1d\xef?'
tRp2126
ag1623
(g1625
S'\xc0\xdf\xf6?'
tRp2127
ag1623
(g1625
S'\xe5\xac\xee?'
tRp2128
ag1623
(g1625
S"\xce'\x8d?"
tRp2129
ag1623
(g1625
S'5\xb3\xe3?'
tRp2130
ag1623
(g1625
S'y\xfe\xef?'
tRp2131
ag1623
(g1625
S'\x8b3\xf1?'
tRp2132
ag1623
(g1625
S'q\xba\xe6?'
tRp2133
ag1623
(g1625
S'^O\xeb?'
tRp2134
ag1623
(g1625
S'CF\xf1?'
tRp2135
ag1623
(g1625
S'\x0b\x95\xf0?'
tRp2136
ag1623
(g1625
S'\xe7\xb1\xe6?'
tRp2137
ag1623
(g1625
S'\xe8\xab\xf2?'
tRp2138
ag1623
(g1625
S'M\x05\xe8?'
tRp2139
ag1623
(g1625
S'\x80Z\xcb9'
tRp2140
ag1623
(g1625
S'gi\x82?'
tRp2141
ag1623
(g1625
S'C.\xdb?'
tRp2142
ag1623
(g1625
S'\xa7:\xe7?'
tRp2143
ag1623
(g1625
S'\xc4F\xe8?'
tRp2144
ag1623
(g1625
S'1w\xeb?'
tRp2145
ag1623
(g1625
S'\xb5 \xe0?'
tRp2146
ag1623
(g1625
S'\t\xc3\xe6?'
tRp2147
ag1623
(g1625
S'fY\x9b9'
tRp2148
ag1623
(g1625
S'\x17\xf3\xeb?'
tRp2149
ag1623
(g1625
S'0\xd8\xf1?'
tRp2150
ag1623
(g1625
S'\xbd\x17\xe1?'
tRp2151
ag1623
(g1625
S'>_\xf0?'
tRp2152
ag1623
(g1625
S'$|\xe1?'
tRp2153
ag1623
(g1625
S'n\xf5\xe9?'
tRp2154
ag1623
(g1625
S'\x05\x7f\xe6?'
tRp2155
ag1623
(g1625
S'\xa6\xf0\xee?'
tRp2156
ag1623
(g1625
S'2\xd1e?'
tRp2157
ag1623
(g1625
S'\xc3\x17\xf0?'
tRp2158
ag1623
(g1625
S'\xc6L\xe8?'
tRp2159
ag1623
(g1625
S'\xa5x=?'
tRp2160
ag1623
(g1625
S'}\x98\xa8?'
tRp2161
ag1623
(g1625
S'}\xa6\xeb?'
tRp2162
ag1623
(g1625
S'\xa6:\xf5?'
tRp2163
ag1623
(g1625
S'&\x9a\xf1?'
tRp2164
ag1623
(g1625
S'_;\xf0?'
tRp2165
ag1623
(g1625
S'"\xe3\'?'
tRp2166
ag1623
(g1625
S'\x89\x9e\xeb?'
tRp2167
ag1623
(g1625
S'\xee\xf1\xea?'
tRp2168
ag1623
(g1625
S'G\xcf\xef?'
tRp2169
ag1623
(g1625
S'\xef\x00\xe4?'
tRp2170
ag1623
(g1625
S'Zq\xf3?'
tRp2171
ag1623
(g1625
S'm\x04\xea?'
tRp2172
ag1623
(g1625
S'\xd7\x01\x99?'
tRp2173
ag1623
(g1625
S'\xdb\x98\xed?'
tRp2174
ag1623
(g1625
S'S\xa2\xeb?'
tRp2175
ag1623
(g1625
S'\xff`\xe9?'
tRp2176
ag1623
(g1625
S'P\xb2\xef?'
tRp2177
ag1623
(g1625
S'ng\xeb?'
tRp2178
ag1623
(g1625
S'\x04\xb3\xf3?'
tRp2179
ag1623
(g1625
S'\xf3_\xeb?'
tRp2180
ag1623
(g1625
S'W\xa7=?'
tRp2181
ag1623
(g1625
S'\xd1\xae\xe3?'
tRp2182
ag1623
(g1625
S'\xbaY\xec?'
tRp2183
ag1623
(g1625
S'\xe3\xcf\xed?'
tRp2184
ag1623
(g1625
S'3\xe7\xe2?'
tRp2185
ag1623
(g1625
S'x\x05\xde?'
tRp2186
ag1623
(g1625
S'\xe4<\xe7?'
tRp2187
ag1623
(g1625
S'\xb8\xff\xf5?'
tRp2188
ag1623
(g1625
S'\xb0\xbd\xe2?'
tRp2189
ag1623
(g1625
S'\xfc\x92\xea?'
tRp2190
ag1623
(g1625
S'zH\xe6?'
tRp2191
ag1623
(g1625
S'\xa1N\xee?'
tRp2192
ag1623
(g1625
S'\xe6\x90\xf1?'
tRp2193
ag1623
(g1625
S'\xab\x02\xea?'
tRp2194
ag1623
(g1625
S'\xa3\xc9\xa3?'
tRp2195
ag1623
(g1625
S'!\xae\xf1?'
tRp2196
ag1623
(g1625
S'\xa3K\xdb?'
tRp2197
ag1623
(g1625
S'\xbb\xe1\xe4?'
tRp2198
ag1623
(g1625
S'\xbb\x82\xee?'
tRp2199
ag1623
(g1625
S'\xcd\xe1\xf4?'
tRp2200
ag1623
(g1625
S'.&\xeb?'
tRp2201
ag1623
(g1625
S'c\xd3\xeb?'
tRp2202
ag1623
(g1625
S'\xa5%\xe9?'
tRp2203
ag1623
(g1625
S'J\x03\xec?'
tRp2204
ag1623
(g1625
S'b\xd7\xef?'
tRp2205
ag1623
(g1625
S'\xc1\xe1\xf1?'
tRp2206
ag1623
(g1625
S'(\xd0\xe0?'
tRp2207
ag1623
(g1625
S'\x0f\x974?'
tRp2208
ag1623
(g1625
S'\xbf&\xf9>'
tRp2209
ag1623
(g1625
S'\x9bC\xeb?'
tRp2210
ag1623
(g1625
S'\x81\xb0\xe5?'
tRp2211
ag1623
(g1625
S'_\x1a\xe1?'
tRp2212
ag1623
(g1625
S'p\x11\\?'
tRp2213
ag1623
(g1625
S'\xb1\x9e\xea?'
tRp2214
ag1623
(g1625
S'I\x8b\xf1?'
tRp2215
ag1623
(g1625
S'\x1b\x17\xe0?'
tRp2216
ag1623
(g1625
S'\xe2P\xdd?'
tRp2217
ag1623
(g1625
S',\x9d\xe2?'
tRp2218
ag1623
(g1625
S'h\xd7\xdc?'
tRp2219
ag1623
(g1625
S'\xdf\r\xe1?'
tRp2220
ag1623
(g1625
S'\x08[<?'
tRp2221
ag1623
(g1625
S'3c\xe7?'
tRp2222
ag1623
(g1625
S'J\xff\xe2?'
tRp2223
ag1623
(g1625
S'\xc3[\xe7?'
tRp2224
ag1623
(g1625
S'\x8c\n\xa1?'
tRp2225
ag1623
(g1625
S'cC\xec?'
tRp2226
ag1623
(g1625
S'I\x16\xf4?'
tRp2227
ag1623
(g1625
S'\xdfA\xe1?'
tRp2228
ag1623
(g1625
S'\xc2\x99\xe3?'
tRp2229
ag1623
(g1625
S'\xae}\xee?'
tRp2230
ag1623
(g1625
S'R2\xf0?'
tRp2231
ag1623
(g1625
S'<9\xee?'
tRp2232
ag1623
(g1625
S'\xcf\x11\xf1?'
tRp2233
ag1623
(g1625
S'\x08E\xea?'
tRp2234
ag1623
(g1625
S'\xd2\xdc\xdf?'
tRp2235
ag1623
(g1625
S'Oyw>'
tRp2236
ag1623
(g1625
S'\x87\x92\x8e?'
tRp2237
ag1623
(g1625
S' *f?'
tRp2238
ag1623
(g1625
S'w\xdd\xe4?'
tRp2239
ag1623
(g1625
S'\xc0\xcc\xed?'
tRp2240
ag1623
(g1625
S'\x81\x14\xe7?'
tRp2241
ag1623
(g1625
S'\x0fJ\xe7?'
tRp2242
ag1623
(g1625
S'\x87\xb6E?'
tRp2243
ag1623
(g1625
S'\xe9R\xe5?'
tRp2244
ag1623
(g1625
S'~j\xf1?'
tRp2245
ag1623
(g1625
S'mZ\xe8?'
tRp2246
ag1623
(g1625
S'r\x1d\xe8?'
tRp2247
ag1623
(g1625
S'\xab\xc8\x8c?'
tRp2248
ag1623
(g1625
S'\xa0#\xdc?'
tRp2249
ag1623
(g1625
S'\xc2\x0cT>'
tRp2250
ag1623
(g1625
S'\x87\x19\xf2?'
tRp2251
ag1623
(g1625
S'\xaa\xdc\xa2?'
tRp2252
ag1623
(g1625
S'\x1bw\xdf?'
tRp2253
ag1623
(g1625
S'\x82\x0b\xf1?'
tRp2254
ag1623
(g1625
S'\xc5\xb0\xe7?'
tRp2255
ag1623
(g1625
S'\xbb\xd2\xe6?'
tRp2256
ag1623
(g1625
S'\xb0~\x8e?'
tRp2257
ag1623
(g1625
S'\xe2\x9e\xd5?'
tRp2258
ag1623
(g1625
S'$\x19\x12?'
tRp2259
ag1623
(g1625
S'\xd0\xe1\xe0?'
tRp2260
ag1623
(g1625
S'\xa3\xab\x87?'
tRp2261
ag1623
(g1625
S'\x12\xa4\xee?'
tRp2262
ag1623
(g1625
S'\xc6<\xfb>'
tRp2263
ag1623
(g1625
S'\xb7N\xf0?'
tRp2264
ag1623
(g1625
S'<\xaa\xe9?'
tRp2265
ag1623
(g1625
S'[]\xed?'
tRp2266
ag1623
(g1625
S'\x9e\x07\xe7?'
tRp2267
ag1623
(g1625
S'\xcc\x13?<'
tRp2268
ag1623
(g1625
S'X\x90h?'
tRp2269
ag1623
(g1625
S'\xca\x13\xe3?'
tRp2270
ag1623
(g1625
S'=\xbd\xe0?'
tRp2271
ag1623
(g1625
S'\x93\x8f\xe4?'
tRp2272
ag1623
(g1625
S'\x15#\xf1?'
tRp2273
ag1623
(g1625
S'\x17\x18\xec?'
tRp2274
ag1623
(g1625
S'\x10-\xeb?'
tRp2275
ag1623
(g1625
S'\xcd\xd7\xeb?'
tRp2276
ag1623
(g1625
S'\xc8\xef\xec?'
tRp2277
ag1623
(g1625
S'\x8fK\xee?'
tRp2278
ag1623
(g1625
S'\x1di\xec?'
tRp2279
ag1623
(g1625
S'_\x8a\xe3?'
tRp2280
ag1623
(g1625
S'\xf5V\xf0?'
tRp2281
ag1623
(g1625
S' \x0eE?'
tRp2282
ag1623
(g1625
S'\xf2\xd6\xf1?'
tRp2283
ag1623
(g1625
S',c\xe2?'
tRp2284
ag1623
(g1625
S'\x16v\xef?'
tRp2285
ag1623
(g1625
S'in\xee?'
tRp2286
ag1623
(g1625
S'#\x8b\xe7?'
tRp2287
ag1623
(g1625
S'+Q\xe1?'
tRp2288
ag1623
(g1625
S'&\xf3\x84?'
tRp2289
ag1623
(g1625
S'\xbf\x9b\xf0?'
tRp2290
ag1623
(g1625
S'H\xef\x96?'
tRp2291
ag1623
(g1625
S'\x08\xd1\xea?'
tRp2292
ag1623
(g1625
S'i\xff\xd6?'
tRp2293
ag1623
(g1625
S'\xabk\xa3;'
tRp2294
ag1623
(g1625
S'B*v?'
tRp2295
ag1623
(g1625
S'V\xce\xe5?'
tRp2296
ag1623
(g1625
S'\xd3\xf9\xe3?'
tRp2297
ag1623
(g1625
S'\xc6\xfc\xea?'
tRp2298
ag1623
(g1625
S'\xec\xae\xdb?'
tRp2299
ag1623
(g1625
S'\x98;\r?'
tRp2300
ag1623
(g1625
S'\x8f#\xe6?'
tRp2301
ag1623
(g1625
S'\x19\x93\xe8?'
tRp2302
ag1623
(g1625
S's\x92\xe8?'
tRp2303
ag1623
(g1625
S'\xc3\r\xd7?'
tRp2304
ag1623
(g1625
S'\x9e\xda\xf2?'
tRp2305
ag1623
(g1625
S'\xd9N\xe1?'
tRp2306
ag1623
(g1625
S'\xf6\x90\x90?'
tRp2307
ag1623
(g1625
S'0\xc2\xf0?'
tRp2308
ag1623
(g1625
S'F\x80\xf4?'
tRp2309
ag1623
(g1625
S'6r\xe6?'
tRp2310
ag1623
(g1625
S'\x01r3?'
tRp2311
ag1623
(g1625
S'\x96\xc5\xeb?'
tRp2312
ag1623
(g1625
S'5\xcbB?'
tRp2313
ag1623
(g1625
S'\xe2\x95\xe0?'
tRp2314
ag1623
(g1625
S'\\5\xe5?'
tRp2315
ag1623
(g1625
S'\xba\xfe\xed?'
tRp2316
ag1623
(g1625
S'\xdc\xeb\xe4?'
tRp2317
ag1623
(g1625
S'\x7f\xdc\xe4?'
tRp2318
ag1623
(g1625
S'\xdbF\xed?'
tRp2319
ag1623
(g1625
S'\xb5=\xe1?'
tRp2320
ag1623
(g1625
S'2\xce\xe4?'
tRp2321
ag1623
(g1625
S'e\xd6\xe3?'
tRp2322
ag1623
(g1625
S'\xad\x1f\xea?'
tRp2323
ag1623
(g1625
S'\xa1\x97\x1d='
tRp2324
ag1623
(g1625
S'\xd2\x8f\xef?'
tRp2325
ag1623
(g1625
S'\xafn\xec?'
tRp2326
ag1623
(g1625
S'\xad\xbc\xeb?'
tRp2327
ag1623
(g1625
S'\xa6\xa8\xe8?'
tRp2328
ag1623
(g1625
S'\x91\xf4\xe2?'
tRp2329
ag1623
(g1625
S'\xfc?3?'
tRp2330
ag1623
(g1625
S'F\xe0\x16?'
tRp2331
ag1623
(g1625
S'\xa2\xaa\xd6?'
tRp2332
ag1623
(g1625
S'\xd5x\x8c9'
tRp2333
ag1623
(g1625
S'"\xab\xf4?'
tRp2334
ag1623
(g1625
S'\xde\xe2\xf0?'
tRp2335
ag1623
(g1625
S'/:\xf7?'
tRp2336
ag1623
(g1625
S'b\xf4\xef?'
tRp2337
ag1623
(g1625
S'\x01\xff\xd0?'
tRp2338
ag1623
(g1625
S'I\xca[?'
tRp2339
ag1623
(g1625
S'Z\xa0\x8f?'
tRp2340
ag1623
(g1625
S'\xb5\xbcb?'
tRp2341
ag1623
(g1625
S'\xdc8d?'
tRp2342
ag1623
(g1625
S'\x12\xb7\xe6?'
tRp2343
ag1623
(g1625
S'u\x8a\xe9?'
tRp2344
ag1623
(g1625
S'\x87?\xe4?'
tRp2345
ag1623
(g1625
S'21\x04?'
tRp2346
ag1623
(g1625
S'wP\xe4?'
tRp2347
ag1623
(g1625
S'eF_?'
tRp2348
ag1623
(g1625
S'C\xf4\x15?'
tRp2349
ag1623
(g1625
S'\xfa\xd7\x90?'
tRp2350
ag1623
(g1625
S'\x8b\xf5\xde?'
tRp2351
ag1623
(g1625
S's\x17\xde?'
tRp2352
ag1623
(g1625
S't\x8c\xd4?'
tRp2353
ag1623
(g1625
S'*\xa5\xf1?'
tRp2354
ag1623
(g1625
S'g\xd0\x84?'
tRp2355
ag1623
(g1625
S'(\xd9\xd7?'
tRp2356
ag1623
(g1625
S'&\xeb\x9e?'
tRp2357
ag1623
(g1625
S'\xc2\xf9\xea?'
tRp2358
ag1623
(g1625
S'\xdb\xc2\xef?'
tRp2359
ag1623
(g1625
S'\xeaG\xf5?'
tRp2360
ag1623
(g1625
S"'\xcf\xe0?"
tRp2361
ag1623
(g1625
S'U$\x8f?'
tRp2362
ag1623
(g1625
S'7\x98\xe1?'
tRp2363
ag1623
(g1625
S'\x83*\xe3?'
tRp2364
ag1623
(g1625
S'PhV?'
tRp2365
ag1623
(g1625
S'\x9c"H?'
tRp2366
ag1623
(g1625
S'\x02\x1e\x82?'
tRp2367
ag1623
(g1625
S'\xfad\xec?'
tRp2368
ag1623
(g1625
S'\xaf7\xe8?'
tRp2369
ag1623
(g1625
S'\xa9H\xed?'
tRp2370
ag1623
(g1625
S'\x98\xe5\xf5?'
tRp2371
ag1623
(g1625
S'\x8d\xc8\xe9?'
tRp2372
ag1623
(g1625
S'\xd5v\xe4?'
tRp2373
ag1623
(g1625
S'\x8d\xd1\xe3?'
tRp2374
ag1623
(g1625
S'\x7f\x06\xe6?'
tRp2375
ag1623
(g1625
S'\xde]\xdd?'
tRp2376
ag1623
(g1625
S'\xb7\xd6\xe5?'
tRp2377
ag1623
(g1625
S'\x9a\xdc\x16?'
tRp2378
ag1623
(g1625
S'\x8c\xba\xe4?'
tRp2379
ag1623
(g1625
S'\xa9\xab\xe4?'
tRp2380
ag1623
(g1625
S'\x0b*\xe6?'
tRp2381
ag1623
(g1625
S'\xa0[\xed?'
tRp2382
ag1623
(g1625
S'nj\xe5?'
tRp2383
ag1623
(g1625
S'\x1b\t\xf0?'
tRp2384
ag1623
(g1625
S'\xcf}\xdc?'
tRp2385
ag1623
(g1625
S'i\x9f\xe4?'
tRp2386
ag1623
(g1625
S'\xab\xa0\xdd?'
tRp2387
ag1623
(g1625
S'\x80M\xe7?'
tRp2388
ag1623
(g1625
S'3\x083?'
tRp2389
ag1623
(g1625
S'Z\xc4\xed?'
tRp2390
ag1623
(g1625
S'\xe5\xd0\xe5?'
tRp2391
ag1623
(g1625
S'%\x9c\xed?'
tRp2392
ag1623
(g1625
S'W\x83\xc1?'
tRp2393
ag1623
(g1625
S'\xcc\x98\xf3?'
tRp2394
ag1623
(g1625
S'\xed\x1e\xec?'
tRp2395
ag1623
(g1625
S'\xa0{\xee?'
tRp2396
ag1623
(g1625
S'\x8c\xb5\xda?'
tRp2397
ag1623
(g1625
S'\xfb\x87\xe8?'
tRp2398
ag1623
(g1625
S'\xfd\xfb\xd0?'
tRp2399
ag1623
(g1625
S'\x90\xd9\xf1?'
tRp2400
ag1623
(g1625
S'\xe9\x91\x069'
tRp2401
ag1623
(g1625
S'\x10u\xe5?'
tRp2402
ag1623
(g1625
S'\x97Z\xe5?'
tRp2403
ag1623
(g1625
S'\xab\x1fo?'
tRp2404
ag1623
(g1625
S'I\x88\xe7?'
tRp2405
ag1623
(g1625
S'a]\xe8?'
tRp2406
ag1623
(g1625
S'l0\xe3?'
tRp2407
ag1623
(g1625
S'm\x86\xea?'
tRp2408
ag1623
(g1625
S'\x0b\x0e\xf0?'
tRp2409
ag1623
(g1625
S'\x88\xc2;?'
tRp2410
ag1623
(g1625
S'\x11\xe4u?'
tRp2411
ag1623
(g1625
S'\xb9\xb3\xe7?'
tRp2412
ag1623
(g1625
S'\x1b\xf8\xe9?'
tRp2413
ag1623
(g1625
S'j@U?'
tRp2414
ag1623
(g1625
S'h\xfe\xf8?'
tRp2415
ag1623
(g1625
S'\xe6\xd0\xf1?'
tRp2416
ag1623
(g1625
S'(\x00\xed?'
tRp2417
ag1623
(g1625
S'\x1c\x14\xcd?'
tRp2418
ag1623
(g1625
S'\xbb\xbd\xed?'
tRp2419
ag1623
(g1625
S'(\xd2\xe2?'
tRp2420
ag1623
(g1625
S'X;\xe8?'
tRp2421
ag1623
(g1625
S'\xf0\xf2\xf0?'
tRp2422
ag1623
(g1625
S'\x00\xd1D?'
tRp2423
ag1623
(g1625
S'\xff\xbe\xe8?'
tRp2424
ag1623
(g1625
S'[\xc9\xdd?'
tRp2425
ag1623
(g1625
S'L\x02\xe2?'
tRp2426
ag1623
(g1625
S'\xc7t;?'
tRp2427
ag1623
(g1625
S'\x8d\x16Y9'
tRp2428
ag1623
(g1625
S'\x0e\xa0\xf0?'
tRp2429
ag1623
(g1625
S'\x815w?'
tRp2430
ag1623
(g1625
S'\xff\x87\xed?'
tRp2431
ag1623
(g1625
S'\xc6\x98\x1b?'
tRp2432
ag1623
(g1625
S'\x0b\x1a\xeb?'
tRp2433
ag1623
(g1625
S'\x19\x90E>'
tRp2434
ag1623
(g1625
S'\x8ab\xe8?'
tRp2435
ag1623
(g1625
S'\x95e\xdc?'
tRp2436
ag1623
(g1625
S'f\x96\xeb?'
tRp2437
ag1623
(g1625
S'\x16x\x97?'
tRp2438
ag1623
(g1625
S'\xf8\x12\xf0?'
tRp2439
ag1623
(g1625
S'\x00\xcf\xec?'
tRp2440
ag1623
(g1625
S'L\xfbr?'
tRp2441
ag1623
(g1625
S'\xe4\xc2\xeb?'
tRp2442
ag1623
(g1625
S'\xb2\xef\xe0?'
tRp2443
ag1623
(g1625
S'\x1c\x86\xe5?'
tRp2444
ag1623
(g1625
S'\x06\xc1\xe1?'
tRp2445
ag1623
(g1625
S'\xff\xdf\xe7?'
tRp2446
ag1623
(g1625
S'b\x18\xed?'
tRp2447
ag1623
(g1625
S'\x00\xda\xe6?'
tRp2448
ag1623
(g1625
S'\xa7\x03\xee?'
tRp2449
ag1623
(g1625
S';\x18\xde?'
tRp2450
ag1623
(g1625
S'\xa0\xbc\xe7?'
tRp2451
ag1623
(g1625
S'M\x90\xed?'
tRp2452
ag1623
(g1625
S'\xf8s\x87?'
tRp2453
ag1623
(g1625
S'K\x86G?'
tRp2454
ag1623
(g1625
S'\xa1N\xed?'
tRp2455
ag1623
(g1625
S'/\x08\xe2?'
tRp2456
ag1623
(g1625
S'U\xf7\xdf?'
tRp2457
ag1623
(g1625
S'\x06\x1b\x8c<'
tRp2458
ag1623
(g1625
S'\xb0\x04\xf1?'
tRp2459
ag1623
(g1625
S'\x8e{\x91?'
tRp2460
ag1623
(g1625
S"\xc7'\xe1?"
tRp2461
ag1623
(g1625
S'\xee\xf3\xe7?'
tRp2462
ag1623
(g1625
S'A\x1bd?'
tRp2463
ag1623
(g1625
S'\xea\x02G?'
tRp2464
ag1623
(g1625
S'\xeb\xa1\xea?'
tRp2465
ag1623
(g1625
S'\x0b\xd2\xe3?'
tRp2466
ag1623
(g1625
S'\xfb\xbb\xe8?'
tRp2467
ag1623
(g1625
S'O\xf9\xe0?'
tRp2468
ag1623
(g1625
S'\xa0\xe7\xe3?'
tRp2469
ag1623
(g1625
S'\x83\xee\xdf?'
tRp2470
ag1623
(g1625
S"\xa9\xb2'?"
tRp2471
ag1623
(g1625
S'/o\xed?'
tRp2472
ag1623
(g1625
S'\xe5\x1e\xe7?'
tRp2473
ag1623
(g1625
S'I1\xde?'
tRp2474
ag1623
(g1625
S'D0\xdf?'
tRp2475
ag1623
(g1625
S'\x82S\xee?'
tRp2476
ag1623
(g1625
S'\xaf\xe9\xe7?'
tRp2477
ag1623
(g1625
S'\xce!\x81?'
tRp2478
ag1623
(g1625
S'\xb8\xa9\x95?'
tRp2479
ag1623
(g1625
S'\xa6\x9d\xe8?'
tRp2480
ag1623
(g1625
S'ayK?'
tRp2481
ag1623
(g1625
S'\xfdi\xe9?'
tRp2482
ag1623
(g1625
S'\xc4\x1c\xea?'
tRp2483
ag1623
(g1625
S'\xa41\xeb?'
tRp2484
ag1623
(g1625
S'f\xfd\xec?'
tRp2485
ag1623
(g1625
S'.M\xe5?'
tRp2486
ag1623
(g1625
S'\xb8\x90\xea?'
tRp2487
ag1623
(g1625
S'\xb2\x7f\xe5?'
tRp2488
ag1623
(g1625
S'\xbd\x82n?'
tRp2489
ag1623
(g1625
S',l\xdf?'
tRp2490
ag1623
(g1625
S'\xc8\xb8\xe6?'
tRp2491
ag1623
(g1625
S'\xf3\xd6\xf4?'
tRp2492
ag1623
(g1625
S'\xe2R\x9e?'
tRp2493
ag1623
(g1625
S'\x99Ss?'
tRp2494
ag1623
(g1625
S"'\x1e\xf3?"
tRp2495
ag1623
(g1625
S'\r\xc3\xe4?'
tRp2496
ag1623
(g1625
S'$}K?'
tRp2497
ag1623
(g1625
S'\xd9_\xed?'
tRp2498
ag1623
(g1625
S'te\xe7?'
tRp2499
ag1623
(g1625
S'8\xd7v?'
tRp2500
ag1623
(g1625
S'o\x08s?'
tRp2501
ag1623
(g1625
S'\xd6\x93\xeb?'
tRp2502
ag1623
(g1625
S'\x03\xbe\xe5?'
tRp2503
ag1623
(g1625
S'\x19\xa2\xeb?'
tRp2504
ag1623
(g1625
S'-\x9a\xc8>'
tRp2505
ag1623
(g1625
S'\xf0I\xeb?'
tRp2506
ag1623
(g1625
S'\xc2\xf1\xf0?'
tRp2507
ag1623
(g1625
S'\xbe\x0e\x9b?'
tRp2508
ag1623
(g1625
S's\xe5\xe5?'
tRp2509
ag1623
(g1625
S'\xe5\xf8\xee?'
tRp2510
ag1623
(g1625
S'\x87u\xe1?'
tRp2511
ag1623
(g1625
S'\x11\xd0$?'
tRp2512
ag1623
(g1625
S'\xb3\x17\xe4?'
tRp2513
ag1623
(g1625
S'\xa5-\xe7?'
tRp2514
ag1623
(g1625
S'?\xa2\xeb?'
tRp2515
ag1623
(g1625
S'@\x91\xd7?'
tRp2516
ag1623
(g1625
S'U\x93\xe7?'
tRp2517
ag1623
(g1625
S'\x04t\xdf?'
tRp2518
ag1623
(g1625
S'\x81\x95\xeb?'
tRp2519
ag1623
(g1625
S'\xad\xca\xdc?'
tRp2520
ag1623
(g1625
S']A\xe4?'
tRp2521
ag1623
(g1625
S'\x81*\x19?'
tRp2522
ag1623
(g1625
S'\x8aE\xc1='
tRp2523
ag1623
(g1625
S'\xa5\xc7\xef?'
tRp2524
ag1623
(g1625
S'\xfc~\xeb?'
tRp2525
ag1623
(g1625
S'\n\xfcY?'
tRp2526
ag1623
(g1625
S'\xbb4\xea?'
tRp2527
ag1623
(g1625
S'\xf1\xf1\xe4?'
tRp2528
ag1623
(g1625
S'C@I?'
tRp2529
ag1623
(g1625
S'\xfc\x01D?'
tRp2530
ag1623
(g1625
S'\xd6\xb2\xe6?'
tRp2531
ag1623
(g1625
S'\x8eA\xeb?'
tRp2532
ag1623
(g1625
S'\x04c|?'
tRp2533
ag1623
(g1625
S'\x95\xf5\xe2?'
tRp2534
ag1623
(g1625
S'~\xcd\x97?'
tRp2535
ag1623
(g1625
S'\xa3\xec\xdc?'
tRp2536
ag1623
(g1625
S'$\xafL9'
tRp2537
ag1623
(g1625
S'\xe7#\xec?'
tRp2538
ag1623
(g1625
S'U\xc5\x82?'
tRp2539
ag1623
(g1625
S'\x0e7\xef?'
tRp2540
ag1623
(g1625
S'K\x01\x18?'
tRp2541
ag1623
(g1625
S'\xd4\x9d|?'
tRp2542
ag1623
(g1625
S'o\x03\xf1?'
tRp2543
ag1623
(g1625
S'u\x1fK?'
tRp2544
ag1623
(g1625
S'|\xb1J?'
tRp2545
ag1623
(g1625
S'\x13\x8d\xdc?'
tRp2546
ag1623
(g1625
S'\xd9\x0b\xca?'
tRp2547
ag1623
(g1625
S'}\xe3\xe6?'
tRp2548
ag1623
(g1625
S'\x9fW\xed?'
tRp2549
ag1623
(g1625
S'\x1a\x9d\xe9?'
tRp2550
ag1623
(g1625
S'"Dv?'
tRp2551
ag1623
(g1625
S'N}\xe8?'
tRp2552
ag1623
(g1625
S'\x01I\xeb?'
tRp2553
ag1623
(g1625
S'\x80\xfd\xe7?'
tRp2554
ag1623
(g1625
S'\xd2>\xe5?'
tRp2555
ag1623
(g1625
S'\xb1s\xef?'
tRp2556
ag1623
(g1625
S'I\xdd\xec?'
tRp2557
ag1623
(g1625
S'MJ\xef?'
tRp2558
ag1623
(g1625
S'2\x1a\xe0?'
tRp2559
ag1623
(g1625
S'\x8c~s>'
tRp2560
ag1623
(g1625
S'|\x86\xed?'
tRp2561
ag1623
(g1625
S'\xff\xbc\xe7?'
tRp2562
ag1623
(g1625
S'.\x84\xe9?'
tRp2563
ag1623
(g1625
S'\x0c\xf8.>'
tRp2564
ag1623
(g1625
S'5\xfc\xd4?'
tRp2565
ag1623
(g1625
S'0G\xf0?'
tRp2566
ag1623
(g1625
S'0d\xf2?'
tRp2567
ag1623
(g1625
S'\xf41[?'
tRp2568
ag1623
(g1625
S'\x00s\xe4?'
tRp2569
ag1623
(g1625
S'J\xf7\xef?'
tRp2570
ag1623
(g1625
S'\xab\xc9\xdf?'
tRp2571
ag1623
(g1625
S'[i\xed?'
tRp2572
ag1623
(g1625
S'\xf7a\x87?'
tRp2573
ag1623
(g1625
S'1z\xe0?'
tRp2574
ag1623
(g1625
S'\xdd\x05\xee?'
tRp2575
ag1623
(g1625
S')[\xe8?'
tRp2576
ag1623
(g1625
S'\x06\xaa\xe6?'
tRp2577
ag1623
(g1625
S'/\xc2\xea?'
tRp2578
ag1623
(g1625
S'\xb7\xeb\xe6?'
tRp2579
ag1623
(g1625
S'\xa0\xfe\x1f?'
tRp2580
ag1623
(g1625
S'Zi\xef?'
tRp2581
ag1623
(g1625
S'L\x9d\xec?'
tRp2582
ag1623
(g1625
S'\xb4\x1a\xf4?'
tRp2583
ag1623
(g1625
S'1\x9a\xee?'
tRp2584
ag1623
(g1625
S'qVL?'
tRp2585
ag1623
(g1625
S'\xde6\xe3?'
tRp2586
ag1623
(g1625
S'8C\xea?'
tRp2587
ag1623
(g1625
S'\xc9\xf4\xf3?'
tRp2588
ag1623
(g1625
S'\xd9\n\xf4?'
tRp2589
ag1623
(g1625
S'G$\xe5?'
tRp2590
ag1623
(g1625
S',\x83\xf4?'
tRp2591
ag1623
(g1625
S'\x12#\x15<'
tRp2592
ag1623
(g1625
S'ex\xe9?'
tRp2593
ag1623
(g1625
S':\xa8\xe6?'
tRp2594
ag1623
(g1625
S'\xafL\xef?'
tRp2595
ag1623
(g1625
S'\xe5x\xec?'
tRp2596
ag1623
(g1625
S'\x9d\x9c\xea?'
tRp2597
ag1623
(g1625
S'\xefN\xe5?'
tRp2598
ag1623
(g1625
S'?\xa8\xea?'
tRp2599
ag1623
(g1625
S'/\x9f\x89?'
tRp2600
ag1623
(g1625
S'\x84\xa5\xe2?'
tRp2601
ag1623
(g1625
S'\xcd\xbf\xf7?'
tRp2602
ag1623
(g1625
S'\x12(\xe3?'
tRp2603
ag1623
(g1625
S'~\x04\xec?'
tRp2604
ag1623
(g1625
S'\xba\xb5\xc7>'
tRp2605
ag1623
(g1625
S'I\xe5y?'
tRp2606
ag1623
(g1625
S'\xe1\x13\xec?'
tRp2607
ag1623
(g1625
S'\x89|\xee?'
tRp2608
ag1623
(g1625
S'\xc6\xb0\xe1?'
tRp2609
ag1623
(g1625
S'\xfb\xe3\xed?'
tRp2610
ag1623
(g1625
S' ~\x17?'
tRp2611
ag1623
(g1625
S'E\xa0\xdb?'
tRp2612
ag1623
(g1625
S'_\x04\xec?'
tRp2613
ag1623
(g1625
S'\xbfO\xef?'
tRp2614
ag1623
(g1625
S'\xf8\xe4\xee?'
tRp2615
ag1623
(g1625
S'\xb2\\\xe6?'
tRp2616
ag1623
(g1625
S'\x89\xdd\xf3?'
tRp2617
ag1623
(g1625
S'\xf0\x02\xc9?'
tRp2618
ag1623
(g1625
S'\x8b-\xf1?'
tRp2619
ag1623
(g1625
S'p\x16\xfb>'
tRp2620
ag1623
(g1625
S'\xa5\xf2\xec?'
tRp2621
ag1623
(g1625
S'\x96R\xeb?'
tRp2622
ag1623
(g1625
S'\x94K{?'
tRp2623
ag1623
(g1625
S'\xd7\x96\x92?'
tRp2624
ag1623
(g1625
S'{\xa3\xf3?'
tRp2625
ag1623
(g1625
S'Y\xc9[:'
tRp2626
ag1623
(g1625
S'j\x9f\x94?'
tRp2627
ag1623
(g1625
S'QR\xe9?'
tRp2628
ag1623
(g1625
S'\x9a\xa1\xe7?'
tRp2629
ag1623
(g1625
S'W\xef\xee?'
tRp2630
ag1623
(g1625
S'\xdf\xf5\xe9?'
tRp2631
ag1623
(g1625
S'\x19n\xe6?'
tRp2632
ag1623
(g1625
S'\x16\x1c\xeb?'
tRp2633
ag1623
(g1625
S'X\xf9\xdc?'
tRp2634
ag1623
(g1625
S'\xd6\x8b\xd5>'
tRp2635
ag1623
(g1625
S'\xfa\x01\\?'
tRp2636
ag1623
(g1625
S'\x7f\x1f\xeb?'
tRp2637
ag1623
(g1625
S'3\x19\xe6?'
tRp2638
ag1623
(g1625
S'\xe6\xdf\xee?'
tRp2639
ag1623
(g1625
S'\x96|.='
tRp2640
ag1623
(g1625
S'=N\xdf?'
tRp2641
ag1623
(g1625
S'\x8ek\xed?'
tRp2642
ag1623
(g1625
S'<\xab\xed?'
tRp2643
ag1623
(g1625
S'\xc3\xb6\xf1?'
tRp2644
ag1623
(g1625
S'A\x14\xf2?'
tRp2645
ag1623
(g1625
S'\xa6\x0c\xec?'
tRp2646
ag1623
(g1625
S'\xe8\xd4\xf3?'
tRp2647
ag1623
(g1625
S'T\x01\xed9'
tRp2648
ag1623
(g1625
S'\x8d\xe4\x1b9'
tRp2649
ag1623
(g1625
S'rD\xf1?'
tRp2650
ag1623
(g1625
S'Q\x9d\xe7?'
tRp2651
ag1623
(g1625
S'#\xa2\xe4?'
tRp2652
ag1623
(g1625
S'\x81\x99\xe1?'
tRp2653
ag1623
(g1625
S"'V\x86?"
tRp2654
ag1623
(g1625
S'\xfdA\xee?'
tRp2655
ag1623
(g1625
S'\xadi\xf5?'
tRp2656
ag1623
(g1625
S'}"\xf2?'
tRp2657
ag1623
(g1625
S'q\xd7\x9b?'
tRp2658
ag1623
(g1625
S'\xf7\x85l?'
tRp2659
ag1623
(g1625
S'\xbe\x81\xec?'
tRp2660
ag1623
(g1625
S')B\xe7?'
tRp2661
ag1623
(g1625
S'OS\xf1?'
tRp2662
ag1623
(g1625
S'\x85\xdc\xe5?'
tRp2663
ag1623
(g1625
S'\x94\xd3~?'
tRp2664
ag1623
(g1625
S'\x10,/?'
tRp2665
ag1623
(g1625
S'\x0f\xf8\xf1?'
tRp2666
ag1623
(g1625
S'\xbc]U?'
tRp2667
ag1623
(g1625
S'\x15)\xee?'
tRp2668
ag1623
(g1625
S'x\x84\xdd?'
tRp2669
ag1623
(g1625
S'=\x07\xf2?'
tRp2670
ag1623
(g1625
S'\x1a>\xde?'
tRp2671
ag1623
(g1625
S'/\xfa\xe4?'
tRp2672
ag1623
(g1625
S'Q}\xe9?'
tRp2673
ag1623
(g1625
S'\xf3\xb0\xf5?'
tRp2674
ag1623
(g1625
S"\xdc'\xe6?"
tRp2675
ag1623
(g1625
S'q;\xdc?'
tRp2676
ag1623
(g1625
S'\x92\x80\xf3?'
tRp2677
ag1623
(g1625
S'\xdb\xba\xc4?'
tRp2678
ag1623
(g1625
S'\x8e"\x8e?'
tRp2679
ag1623
(g1625
S'\x91\x9ab?'
tRp2680
ag1623
(g1625
S'\xd15#?'
tRp2681
ag1623
(g1625
S's4\xed?'
tRp2682
ag1623
(g1625
S'\t\xe4\xf4?'
tRp2683
ag1623
(g1625
S'\x98-=?'
tRp2684
ag1623
(g1625
S'\x9dA\xf1?'
tRp2685
ag1623
(g1625
S'\xd8,\xf4?'
tRp2686
ag1623
(g1625
S'\xa6\xa1\xed?'
tRp2687
ag1623
(g1625
S'\x84\xd1\xe7?'
tRp2688
ag1623
(g1625
S'\xe7\xc80<'
tRp2689
ag1623
(g1625
S'>8\x86?'
tRp2690
ag1623
(g1625
S'\x02\x05\xef?'
tRp2691
ag1623
(g1625
S'\x16Wm?'
tRp2692
ag1623
(g1625
S'\x86Z\xee?'
tRp2693
ag1623
(g1625
S'4AO?'
tRp2694
ag1623
(g1625
S'\xe1\xd0\xef?'
tRp2695
ag1623
(g1625
S'\x0c\xd2\xe9?'
tRp2696
ag1623
(g1625
S'\xf5\xe8\xe4?'
tRp2697
ag1623
(g1625
S'\x8a\x9el?'
tRp2698
ag1623
(g1625
S'/\xc7\x89<'
tRp2699
ag1623
(g1625
S'\xd5J\x8e?'
tRp2700
ag1623
(g1625
S'\xbcqr?'
tRp2701
ag1623
(g1625
S'#\xd9\xe3?'
tRp2702
ag1623
(g1625
S'>\x1e\xef?'
tRp2703
ag1623
(g1625
S'\xd3S\xe2?'
tRp2704
ag1623
(g1625
S'(\x11\xf0?'
tRp2705
ag1623
(g1625
S'\x04\xfd\xe1?'
tRp2706
ag1623
(g1625
S'\xde\x1d\xef?'
tRp2707
ag1623
(g1625
S'l\xdc\xed?'
tRp2708
ag1623
(g1625
S'\xac\xbd\xdd?'
tRp2709
ag1623
(g1625
S'O\xbc\xef?'
tRp2710
ag1623
(g1625
S'\x00\xd9\xe7?'
tRp2711
ag1623
(g1625
S'|\xcf\xef?'
tRp2712
ag1623
(g1625
S'\xc3^\xce9'
tRp2713
ag1623
(g1625
S'\x06I\x86?'
tRp2714
ag1623
(g1625
S'\xf3T\xef?'
tRp2715
ag1623
(g1625
S'\x8d\x0b\xe7?'
tRp2716
ag1623
(g1625
S'\xadP@?'
tRp2717
ag1623
(g1625
S'\xa65\xee?'
tRp2718
ag1623
(g1625
S"\xff'\xea?"
tRp2719
ag1623
(g1625
S'\x98\x95\xf5?'
tRp2720
ag1623
(g1625
S'\xc1\x17\xf3?'
tRp2721
ag1623
(g1625
S'=\x91\xed?'
tRp2722
ag1623
(g1625
S'\xbd\xff\xe4?'
tRp2723
ag1623
(g1625
S'\xe5=\xc0?'
tRp2724
ag1623
(g1625
S'(U\xb39'
tRp2725
ag1623
(g1625
S':M\xf5?'
tRp2726
ag1623
(g1625
S'!\xc6\xef?'
tRp2727
ag1623
(g1625
S'$\xf6\xe6?'
tRp2728
ag1623
(g1625
S'\xc6\xc0\xed?'
tRp2729
ag1623
(g1625
S'\xf5L9?'
tRp2730
ag1623
(g1625
S'\xb3{\xf1?'
tRp2731
ag1623
(g1625
S'\xb2:\xe8?'
tRp2732
ag1623
(g1625
S'\x1a\xe3\xe6?'
tRp2733
ag1623
(g1625
S"'\x03\xab?"
tRp2734
ag1623
(g1625
S'\xd9\xcf\xe6?'
tRp2735
ag1623
(g1625
S'\xae\xa3\xe6?'
tRp2736
ag1623
(g1625
S'-\x14\xf2?'
tRp2737
ag1623
(g1625
S')|\xe9?'
tRp2738
ag1623
(g1625
S'5\x94\xe3?'
tRp2739
ag1623
(g1625
S'\xf6\x1b\xea?'
tRp2740
ag1623
(g1625
S'\xf6\xe7\x9a?'
tRp2741
ag1623
(g1625
S'\x12\x89\xe6?'
tRp2742
ag1623
(g1625
S'\xfa\xb2/?'
tRp2743
ag1623
(g1625
S'\x93$\xf3?'
tRp2744
ag1623
(g1625
S'c]\xe2?'
tRp2745
ag1623
(g1625
S'=\xe1y?'
tRp2746
ag1623
(g1625
S'\x8e\xd7\xe3?'
tRp2747
ag1623
(g1625
S'/\x0f\xf2?'
tRp2748
ag1623
(g1625
S'=\xd8\xeb?'
tRp2749
ag1623
(g1625
S'\t\x88\xea?'
tRp2750
ag1623
(g1625
S'QR\xe5?'
tRp2751
ag1623
(g1625
S'\xdaz\xea?'
tRp2752
ag1623
(g1625
S'o\xc3\xeb?'
tRp2753
ag1623
(g1625
S'\xc2]\xb0?'
tRp2754
ag1623
(g1625
S'4\x8a\xef?'
tRp2755
ag1623
(g1625
S'\xaff\xee?'
tRp2756
ag1623
(g1625
S'\xb3!\xef?'
tRp2757
ag1623
(g1625
S'\xb6\xe5\xf2?'
tRp2758
ag1623
(g1625
S'\xab4\xeb?'
tRp2759
ag1623
(g1625
S'U^\x86?'
tRp2760
ag1623
(g1625
S'\xe0c\xf0?'
tRp2761
ag1623
(g1625
S'\x93^\xef?'
tRp2762
ag1623
(g1625
S'\xcb\xc1\xe0?'
tRp2763
ag1623
(g1625
S'W\xa8\xe6?'
tRp2764
ag1623
(g1625
S'\x8c\x0f\x1d?'
tRp2765
ag1623
(g1625
S'K\xbb\xec?'
tRp2766
ag1623
(g1625
S'F:h9'
tRp2767
ag1623
(g1625
S'\x81.\xeb?'
tRp2768
ag1623
(g1625
S'\xb4\xfb\xe2?'
tRp2769
ag1623
(g1625
S'\xb0A\x94?'
tRp2770
ag1623
(g1625
S'G\x87\x8c?'
tRp2771
ag1623
(g1625
S'A\x1b\xea?'
tRp2772
ag1623
(g1625
S'\x9c\xe2\x85?'
tRp2773
ag1623
(g1625
S'\xff\xc12?'
tRp2774
ag1623
(g1625
S'\x97\xeb\xdf?'
tRp2775
ag1623
(g1625
S'M\x1a\xf5?'
tRp2776
ag1623
(g1625
S'I{ ?'
tRp2777
ag1623
(g1625
S'\xd1\xd2\xe9?'
tRp2778
ag1623
(g1625
S'h*e?'
tRp2779
ag1623
(g1625
S'l \xe8?'
tRp2780
ag1623
(g1625
S'\x1c9\xe3?'
tRp2781
ag1623
(g1625
S'W\x9d\xee?'
tRp2782
ag1623
(g1625
S'@\xe2\xe5?'
tRp2783
ag1623
(g1625
S'\xc1&\xf5?'
tRp2784
ag1623
(g1625
S'vm\xd2?'
tRp2785
ag1623
(g1625
S'\r\xb1\xef?'
tRp2786
ag1623
(g1625
S'\xeaZ\xa0?'
tRp2787
ag1623
(g1625
S'\xb0*1?'
tRp2788
ag1623
(g1625
S'\x7fr\xec?'
tRp2789
ag1623
(g1625
S'\xb2\xe0\xef?'
tRp2790
ag1623
(g1625
S'\xbd\xf0r?'
tRp2791
ag1623
(g1625
S'\x82\x8d\xf1?'
tRp2792
ag1623
(g1625
S'\x944\xe8?'
tRp2793
ag1623
(g1625
S';\xb5\xeb?'
tRp2794
ag1623
(g1625
S'4b\xe0?'
tRp2795
ag1623
(g1625
S'\x0b\xb8\xe0?'
tRp2796
ag1623
(g1625
S'z_\xeb?'
tRp2797
ag1623
(g1625
S'\xf2~\xc3?'
tRp2798
ag1623
(g1625
S'\xb7j\xee?'
tRp2799
ag1623
(g1625
S'\x00~\xee?'
tRp2800
ag1623
(g1625
S'\x0b\x99T='
tRp2801
ag1623
(g1625
S'\xd4\x19#;'
tRp2802
ag1623
(g1625
S'Gx\x84?'
tRp2803
ag1623
(g1625
S'\xec\x7f\xf2?'
tRp2804
ag1623
(g1625
S'\xd5\x88\xe6?'
tRp2805
ag1623
(g1625
S'\x90B\x85?'
tRp2806
ag1623
(g1625
S'\xc2\xf7\xce?'
tRp2807
ag1623
(g1625
S'S\xaa\xe5?'
tRp2808
ag1623
(g1625
S'\xc0\xf2\xe8?'
tRp2809
ag1623
(g1625
S'\xf7\x9cT?'
tRp2810
ag1623
(g1625
S']\x00\xe1?'
tRp2811
ag1623
(g1625
S'\x93\xf2\xe4?'
tRp2812
ag1623
(g1625
S'\xae\x08\xe7?'
tRp2813
ag1623
(g1625
S'[\xb3\xee?'
tRp2814
ag1623
(g1625
S',\xc7\xdc?'
tRp2815
ag1623
(g1625
S'\xb5\x87\xb6='
tRp2816
ag1623
(g1625
S'f~\xe4?'
tRp2817
ag1623
(g1625
S'\x90\x7f\xf2?'
tRp2818
ag1623
(g1625
S'\x80\x9f\xee?'
tRp2819
ag1623
(g1625
S'\xc7\xb1\xe2?'
tRp2820
ag1623
(g1625
S'\xea\x7f\xe8?'
tRp2821
ag1623
(g1625
S'\xd8\x95A?'
tRp2822
ag1623
(g1625
S'\xc1\xc0\xe8?'
tRp2823
ag1623
(g1625
S'\xa2\x14\xf0?'
tRp2824
ag1623
(g1625
S'\xd50\xed?'
tRp2825
ag1623
(g1625
S'=g\xed?'
tRp2826
ag1623
(g1625
S'U\xa0\xb3?'
tRp2827
ag1623
(g1625
S'&B\xf0?'
tRp2828
ag1623
(g1625
S'\xe8j\t:'
tRp2829
ag1623
(g1625
S'=B\xe2?'
tRp2830
ag1623
(g1625
S'\xeb\xd7\xe9?'
tRp2831
ag1623
(g1625
S'f\xdf\xe8?'
tRp2832
ag1623
(g1625
S'}W,?'
tRp2833
ag1623
(g1625
S'\x90\x8e/?'
tRp2834
ag1623
(g1625
S'`\xfd\xe7?'
tRp2835
ag1623
(g1625
S'\x0c\xeb\xeb?'
tRp2836
ag1623
(g1625
S'RH\xef?'
tRp2837
ag1623
(g1625
S'\xdf\xa1m?'
tRp2838
ag1623
(g1625
S'\xdb=\xea?'
tRp2839
ag1623
(g1625
S'\xf4\xef\xeb?'
tRp2840
ag1623
(g1625
S'8\xd4\xf2?'
tRp2841
ag1623
(g1625
S'\xb2`a?'
tRp2842
ag1623
(g1625
S'\xa20\xe7?'
tRp2843
ag1623
(g1625
S"'W\xee?"
tRp2844
ag1623
(g1625
S'm\xbc\xf0?'
tRp2845
ag1623
(g1625
S'M\xa7T?'
tRp2846
ag1623
(g1625
S'kd\xea?'
tRp2847
ag1623
(g1625
S'\x15\xbf\xe6?'
tRp2848
ag1623
(g1625
S'\xe4\x1b\xdf?'
tRp2849
ag1623
(g1625
S'\xa0\xa3\xe4?'
tRp2850
ag1623
(g1625
S'\x03\t\xee?'
tRp2851
ag1623
(g1625
S'15\xec?'
tRp2852
ag1623
(g1625
S'}k\xf0?'
tRp2853
ag1623
(g1625
S'g\xe3>?'
tRp2854
ag1623
(g1625
S'\x14j\x8d?'
tRp2855
ag1623
(g1625
S'}\x95\xec?'
tRp2856
ag1623
(g1625
S'&\xf9\xe9?'
tRp2857
ag1623
(g1625
S'r8\xe5?'
tRp2858
ag1623
(g1625
S'\x8d\x00\xe7?'
tRp2859
ag1623
(g1625
S'\xd6x\xce?'
tRp2860
ag1623
(g1625
S'\xc1\x96\x97?'
tRp2861
ag1623
(g1625
S' N\xf8?'
tRp2862
ag1623
(g1625
S'}\xba\xab?'
tRp2863
ag1623
(g1625
S'\xf6\x8e\xe8?'
tRp2864
ag1623
(g1625
S'\x05\xfd\xef?'
tRp2865
ag1623
(g1625
S'\xad\x9b\xe9?'
tRp2866
ag1623
(g1625
S'\xf1\xd0\xea?'
tRp2867
ag1623
(g1625
S'\xe1r\xa8>'
tRp2868
ag1623
(g1625
S'a\xbai?'
tRp2869
ag1623
(g1625
S'G\xdeE?'
tRp2870
ag1623
(g1625
S'A<\xf7?'
tRp2871
ag1623
(g1625
S'\x95\x19\xf1?'
tRp2872
ag1623
(g1625
S'6\xd0|?'
tRp2873
ag1623
(g1625
S'-\x99\xe0?'
tRp2874
ag1623
(g1625
S'\xf9r\xdb8'
tRp2875
ag1623
(g1625
S'(h\x00?'
tRp2876
ag1623
(g1625
S'\x1a\x0f\xea?'
tRp2877
ag1623
(g1625
S'\x89\x1a\xeb?'
tRp2878
ag1623
(g1625
S'+W\x8c?'
tRp2879
ag1623
(g1625
S'R\x88\xe9?'
tRp2880
ag1623
(g1625
S'r\xe3\xe8?'
tRp2881
ag1623
(g1625
S'\xc7\x95\x91?'
tRp2882
ag1623
(g1625
S'\xcfm\xe1?'
tRp2883
ag1623
(g1625
S'\x0bX4?'
tRp2884
ag1623
(g1625
S'C\x0b\xe8?'
tRp2885
ag1623
(g1625
S'\n&\xdc?'
tRp2886
ag1623
(g1625
S'n`\xdb>'
tRp2887
ag1623
(g1625
S'\xd2\x01\x8f?'
tRp2888
ag1623
(g1625
S'\x9e\xbc\x7f?'
tRp2889
ag1623
(g1625
S'\xdd\xd5\xee?'
tRp2890
ag1623
(g1625
S'Qb\xea?'
tRp2891
ag1623
(g1625
S'\x88\xc4\xc4?'
tRp2892
ag1623
(g1625
S'?\xd8\xda?'
tRp2893
ag1623
(g1625
S'\xea\xbav9'
tRp2894
ag1623
(g1625
S'\xde:\xb79'
tRp2895
ag1623
(g1625
S'\x8e\x08\xf6?'
tRp2896
ag1623
(g1625
S'_\xe2\xe9?'
tRp2897
ag1623
(g1625
S',\xab\xe1?'
tRp2898
ag1623
(g1625
S'\xa17\xe5?'
tRp2899
ag1623
(g1625
S"\xecc'?"
tRp2900
ag1623
(g1625
S'\x8a\x15]?'
tRp2901
ag1623
(g1625
S'"\xc3\xde?'
tRp2902
ag1623
(g1625
S'N\x9b\xed?'
tRp2903
ag1623
(g1625
S'\x94Oq?'
tRp2904
ag1623
(g1625
S'\x89\xd8\xe4?'
tRp2905
ag1623
(g1625
S'%\xd8\xe8?'
tRp2906
ag1623
(g1625
S' Q\x92?'
tRp2907
ag1623
(g1625
S'\x8c{4?'
tRp2908
ag1623
(g1625
S'\xd8\xa8\xeb?'
tRp2909
ag1623
(g1625
S'\xf9\xd6o?'
tRp2910
ag1623
(g1625
S'7q\xeb?'
tRp2911
ag1623
(g1625
S'\xc5\x9e\xe3?'
tRp2912
ag1623
(g1625
S'\xedp\xdc?'
tRp2913
ag1623
(g1625
S'\x81\xb4\xb0<'
tRp2914
ag1623
(g1625
S'\xf3Jg?'
tRp2915
ag1623
(g1625
S'\xc7|\xea?'
tRp2916
ag1623
(g1625
S'\x95l\xef?'
tRp2917
ag1623
(g1625
S'\x8d\x02\xf2?'
tRp2918
ag1623
(g1625
S'\xc1\xdb\xea?'
tRp2919
ag1623
(g1625
S'\x91d\xf2?'
tRp2920
ag1623
(g1625
S'\xc4\xbe\xec?'
tRp2921
ag1623
(g1625
S'W=p?'
tRp2922
ag1623
(g1625
S'-\x85\xea?'
tRp2923
ag1623
(g1625
S'\xa84\xf5?'
tRp2924
ag1623
(g1625
S'\xf4\x95\xeb?'
tRp2925
ag1623
(g1625
S'\xe3\xe3\xf0?'
tRp2926
ag1623
(g1625
S'\x85\x82\x80?'
tRp2927
ag1623
(g1625
S'\xed%c?'
tRp2928
ag1623
(g1625
S'd\xf0\xd0?'
tRp2929
ag1623
(g1625
S'\xbb\x19\xdf?'
tRp2930
ag1623
(g1625
S'\xa8\xa1\x88?'
tRp2931
ag1623
(g1625
S'\xb6\xcf\x02='
tRp2932
ag1623
(g1625
S'f{\xed?'
tRp2933
ag1623
(g1625
S'\x0b\xeb\xe9?'
tRp2934
ag1623
(g1625
S'\xb2-\xe7?'
tRp2935
ag1623
(g1625
S'\xd5\xa7\xe7?'
tRp2936
ag1623
(g1625
S'\x87\x9b\xe9?'
tRp2937
ag1623
(g1625
S'\x0bwE?'
tRp2938
ag1623
(g1625
S'\xe8\xb6d?'
tRp2939
ag1623
(g1625
S'{66?'
tRp2940
ag1623
(g1625
S'\x02h\x7f?'
tRp2941
ag1623
(g1625
S'\xc4\xef\xed?'
tRp2942
ag1623
(g1625
S'\x96\x86\xe9?'
tRp2943
ag1623
(g1625
S'>\xb2\xa1?'
tRp2944
ag1623
(g1625
S'a\xdb\xee?'
tRp2945
ag1623
(g1625
S'R\x86x?'
tRp2946
ag1623
(g1625
S'\x94[G?'
tRp2947
ag1623
(g1625
S'!_\x17<'
tRp2948
ag1623
(g1625
S'\x0c\x9a\xee?'
tRp2949
ag1623
(g1625
S'\x86ND?'
tRp2950
ag1623
(g1625
S'G9\xf6?'
tRp2951
ag1623
(g1625
S'\xd9:I?'
tRp2952
ag1623
(g1625
S'\x90\x96\xef?'
tRp2953
ag1623
(g1625
S'\x8e\xe3\xe7?'
tRp2954
ag1623
(g1625
S'h\xeb\x82?'
tRp2955
ag1623
(g1625
S'\xae?R?'
tRp2956
ag1623
(g1625
S'\x18}\xdd?'
tRp2957
ag1623
(g1625
S'"\x05\xe2?'
tRp2958
ag1623
(g1625
S'K\xaa\xaf>'
tRp2959
ag1623
(g1625
S'`Z\xe4?'
tRp2960
ag1623
(g1625
S'\xf5x\xf3?'
tRp2961
ag1623
(g1625
S'\xb2\xfd\xf2?'
tRp2962
ag1623
(g1625
S'\xbaj\xdf?'
tRp2963
ag1623
(g1625
S'6\xe1\xef?'
tRp2964
ag1623
(g1625
S'\xc7\x0e\x8f9'
tRp2965
ag1623
(g1625
S'?\xa1\xec?'
tRp2966
ag1623
(g1625
S'c\x85\xe8?'
tRp2967
ag1623
(g1625
S'\xf3\x03N?'
tRp2968
ag1623
(g1625
S'\x8a,\xf4?'
tRp2969
ag1623
(g1625
S'\xbd\x10\xef?'
tRp2970
ag1623
(g1625
S'`R\xeb?'
tRp2971
ag1623
(g1625
S'f\xc6\xe9?'
tRp2972
ag1623
(g1625
S'|\x9d\xee?'
tRp2973
ag1623
(g1625
S'g]\xea?'
tRp2974
ag1623
(g1625
S'\x97\xed\xe2?'
tRp2975
ag1623
(g1625
S'\xcd\xbb\xe9?'
tRp2976
ag1623
(g1625
S' :\xa6?'
tRp2977
ag1623
(g1625
S'Yq\xeb?'
tRp2978
ag1623
(g1625
S'\xc3\xcdF?'
tRp2979
ag1623
(g1625
S'>^Y:'
tRp2980
ag1623
(g1625
S'y\x98\x90?'
tRp2981
ag1623
(g1625
S'\x02\x0f\xed?'
tRp2982
ag1623
(g1625
S'\x81\xff\xe3?'
tRp2983
ag1623
(g1625
S'\xd2T\xe6?'
tRp2984
ag1623
(g1625
S'\xd6\xf7R?'
tRp2985
ag1623
(g1625
S'\x17I\xf0?'
tRp2986
ag1623
(g1625
S'\xd4\x03\xeb?'
tRp2987
ag1623
(g1625
S'n!\xec?'
tRp2988
ag1623
(g1625
S'jt\xe7?'
tRp2989
ag1623
(g1625
S'\xce\x06\x13?'
tRp2990
ag1623
(g1625
S'\x87\xa4\xe9?'
tRp2991
ag1623
(g1625
S'\xbd[P?'
tRp2992
ag1623
(g1625
S'b\xea\x95?'
tRp2993
ag1623
(g1625
S'+L\xec?'
tRp2994
ag1623
(g1625
S'z\xf4\xec?'
tRp2995
ag1623
(g1625
S'\xffd\xf1?'
tRp2996
ag1623
(g1625
S'@`\xe6?'
tRp2997
ag1623
(g1625
S'\xf9\xeb\xec?'
tRp2998
ag1623
(g1625
S'$\xe0\t?'
tRp2999
ag1623
(g1625
S'\xb6\x11\x8b?'
tRp3000
ag1623
(g1625
S'Y\x82\xec?'
tRp3001
ag1623
(g1625
S'\x1c<\xf0?'
tRp3002
ag1623
(g1625
S'\x83\xf9X:'
tRp3003
ag1623
(g1625
S'\xe6\x99\xea?'
tRp3004
ag1623
(g1625
S'\x85\xccv?'
tRp3005
ag1623
(g1625
S'\xd5E\xf1?'
tRp3006
ag1623
(g1625
S'\x05.\xd7?'
tRp3007
ag1623
(g1625
S'B|\xdb?'
tRp3008
ag1623
(g1625
S'\xd8\xd7\xed?'
tRp3009
ag1623
(g1625
S'y3~?'
tRp3010
ag1623
(g1625
S'V\xc5\xf7?'
tRp3011
ag1623
(g1625
S'\xa5\xdf\xa7?'
tRp3012
ag1623
(g1625
S'\x85c\xdf?'
tRp3013
ag1623
(g1625
S'\xea\xbdb?'
tRp3014
ag1623
(g1625
S'[}\xe3?'
tRp3015
ag1623
(g1625
S'\x1dN\xd3?'
tRp3016
ag1623
(g1625
S'q3\x108'
tRp3017
ag1623
(g1625
S'1\x8f\xe8?'
tRp3018
ag1623
(g1625
S'\xa2\xdf\xe1?'
tRp3019
ag1623
(g1625
S'\x88\xd4\xf0?'
tRp3020
ag1623
(g1625
S'\x8b-\xe7?'
tRp3021
ag1623
(g1625
S'\xdd\x9b\\?'
tRp3022
ag1623
(g1625
S'?\x13\x81<'
tRp3023
ag1623
(g1625
S"\x8f'\xec?"
tRp3024
ag1623
(g1625
S'\xa3\x8c\xee?'
tRp3025
ag1623
(g1625
S'\x95\xe36?'
tRp3026
ag1623
(g1625
S'1\xa7\x86?'
tRp3027
ag1623
(g1625
S'\x8e\x13~?'
tRp3028
ag1623
(g1625
S'\xbc\x0c[?'
tRp3029
ag1623
(g1625
S'R\x99[?'
tRp3030
ag1623
(g1625
S'"\xac\xef?'
tRp3031
ag1623
(g1625
S'IE\xe6?'
tRp3032
ag1623
(g1625
S'\x9f{\x84?'
tRp3033
ag1623
(g1625
S'\xfcj|?'
tRp3034
ag1623
(g1625
S'\x18\xc2\xe8?'
tRp3035
ag1623
(g1625
S'\xb5\x9eM?'
tRp3036
ag1623
(g1625
S'\xcf\xd8\xf4?'
tRp3037
ag1623
(g1625
S':\xdd\xee?'
tRp3038
ag1623
(g1625
S'\xf1\x92\xe6?'
tRp3039
ag1623
(g1625
S'\xd8H\xf1?'
tRp3040
ag1623
(g1625
S'\x0f\x08\xf1?'
tRp3041
ag1623
(g1625
S'\xb69\xeb?'
tRp3042
ag1623
(g1625
S'\x9d\xbb\xeb?'
tRp3043
ag1623
(g1625
S'/\x1c\xea?'
tRp3044
ag1623
(g1625
S'p\x9f\xf1?'
tRp3045
ag1623
(g1625
S'\xdd\xc0Q?'
tRp3046
ag1623
(g1625
S'\xdc\x04|?'
tRp3047
ag1623
(g1625
S'\x15\xc4\xef?'
tRp3048
ag1623
(g1625
S'Ip\xf4?'
tRp3049
ag1623
(g1625
S'r~\x80?'
tRp3050
ag1623
(g1625
S'~\x8d\xe8?'
tRp3051
ag1623
(g1625
S'\x9fj;<'
tRp3052
ag1623
(g1625
S'[\xeaA<'
tRp3053
ag1623
(g1625
S'\xc1\x14\xe6?'
tRp3054
ag1623
(g1625
S'\x1ch\x91?'
tRp3055
ag1623
(g1625
S'M\xaa\xe4?'
tRp3056
ag1623
(g1625
S'?\xd9\xed?'
tRp3057
ag1623
(g1625
S'\x9di\xe9?'
tRp3058
ag1623
(g1625
S'o\xaaM;'
tRp3059
ag1623
(g1625
S'\xdf\x8e\xee?'
tRp3060
ag1623
(g1625
S'1k\xe4?'
tRp3061
ag1623
(g1625
S'\x11\xf1\xef?'
tRp3062
ag1623
(g1625
S'\xcc\xc6\x9e<'
tRp3063
ag1623
(g1625
S'\x15\xc9E;'
tRp3064
ag1623
(g1625
S'\xda!\xce<'
tRp3065
ag1623
(g1625
S'\xba8\xe4?'
tRp3066
ag1623
(g1625
S'\x9e\xd9z<'
tRp3067
ag1623
(g1625
S'\xc5\xc3\xf2?'
tRp3068
ag1623
(g1625
S'\x9d\x89\xe9?'
tRp3069
ag1623
(g1625
S'\xee\xdf^?'
tRp3070
ag1623
(g1625
S'\xd6\xd1\x0e='
tRp3071
ag1623
(g1625
S'p\xe2\x01?'
tRp3072
ag1623
(g1625
S'\xc0\xd6\xe5?'
tRp3073
ag1623
(g1625
S'\xac\x19\xf2?'
tRp3074
ag1623
(g1625
S'\x0b\xcd\x1e?'
tRp3075
ag1623
(g1625
S'#\xbaz?'
tRp3076
ag1623
(g1625
S'"\x03\xec?'
tRp3077
ag1623
(g1625
S'\x99X\x95<'
tRp3078
ag1623
(g1625
S'\xbba\xef?'
tRp3079
ag1623
(g1625
S'\xd1\x93\xf4?'
tRp3080
ag1623
(g1625
S'\xb5(\xe9?'
tRp3081
ag1623
(g1625
S'q\x12\xef?'
tRp3082
ag1623
(g1625
S'Kq\xf0?'
tRp3083
ag1623
(g1625
S'\xcb\xdcC?'
tRp3084
ag1623
(g1625
S'\xc3\xa9\xf1?'
tRp3085
ag1623
(g1625
S'\x01"\xef?'
tRp3086
ag1623
(g1625
S'\x18\x0f\x90<'
tRp3087
ag1623
(g1625
S'\xd9\x1f\xf0?'
tRp3088
ag1623
(g1625
S'\xf8\xc7\xee;'
tRp3089
ag1623
(g1625
S'\x89\x80\xf6?'
tRp3090
ag1623
(g1625
S'{\xae\xe9?'
tRp3091
ag1623
(g1625
S'\x05F\xea?'
tRp3092
ag1623
(g1625
S'\xfc\xca\xe4?'
tRp3093
ag1623
(g1625
S'\xab\xc5\xf5;'
tRp3094
ag1623
(g1625
S'f+\xe6?'
tRp3095
ag1623
(g1625
S'\xdc\xd8\xc3<'
tRp3096
ag1623
(g1625
S'\\\xe7x?'
tRp3097
ag1623
(g1625
S'\t\xb6\x82;'
tRp3098
ag1623
(g1625
S'\x11\x1c\xeb<'
tRp3099
ag1623
(g1625
S'y\xf5\x02<'
tRp3100
ag1623
(g1625
S'\xf5\x06\xe5?'
tRp3101
ag1623
(g1625
S'\x84p\xba<'
tRp3102
ag1623
(g1625
S'\xe4!\x95;'
tRp3103
ag1623
(g1625
S'L\x1eP?'
tRp3104
ag1623
(g1625
S'\x9f\xa0n;'
tRp3105
ag1623
(g1625
S'\xa14\x07='
tRp3106
ag1623
(g1625
S'S\xcc\x94<'
tRp3107
ag1623
(g1625
S'\x99\x11/<'
tRp3108
ag1623
(g1625
S'\xf9\x0f\xe9<'
tRp3109
ag1623
(g1625
S'\xe0\x16m;'
tRp3110
ag1623
(g1625
S'\xf1\x1a\x9d<'
tRp3111
ag1623
(g1625
S'\xec\xc9;<'
tRp3112
ag1623
(g1625
S'\xdb\xdb?:'
tRp3113
ag1623
(g1625
S'iB\x8b<'
tRp3114
ag1623
(g1625
S'I\xb2u?'
tRp3115
ag1623
(g1625
S'0Lr<'
tRp3116
ag1623
(g1625
S'\xd7\xb7M<'
tRp3117
ag1623
(g1625
S'=\x83\x19:'
tRp3118
ag1623
(g1625
S'w_\x07<'
tRp3119
ag1623
(g1625
S'\x14\xf00='
tRp3120
ag1623
(g1625
S'\xb7G-:'
tRp3121
ag1623
(g1625
S'\xc7l"='
tRp3122
ag1623
(g1625
S'J\xc2\x80='
tRp3123
ag1623
(g1625
S'pe\xaf<'
tRp3124
ag1623
(g1625
S'I\xd3Y;'
tRp3125
ag1623
(g1625
S'nf\xf1<'
tRp3126
ag1623
(g1625
S'8\xde\x80<'
tRp3127
ag1623
(g1625
S'1\x0c\x05<'
tRp3128
ag1623
(g1625
S'\xe6\x11\xea;'
tRp3129
ag1623
(g1625
S'\xab]\x9e9'
tRp3130
ag1623
(g1625
S'b\x11\x03<'
tRp3131
ag1623
(g1625
S'\x99\x0c2='
tRp3132
ag1623
(g1625
S'\xc2\x04\x16='
tRp3133
ag1623
(g1625
S'\x02\xc9\xd7<'
tRp3134
ag1623
(g1625
S'u\x16\xa0<'
tRp3135
ag1623
(g1625
S'\xad\xeb\xcb;'
tRp3136
ag1623
(g1625
S'@\xa2\xa89'
tRp3137
ag1623
(g1625
S';7\x82;'
tRp3138
ag1623
(g1625
S'#Sa<'
tRp3139
ag1623
(g1625
S'\xe5m\x1f<'
tRp3140
ag1623
(g1625
S'\x11\x94\xb4:'
tRp3141
ag1623
(g1625
S'k\xc0\x03='
tRp3142
ag1623
(g1625
S'\xb2u\x86;'
tRp3143
ag1623
(g1625
S'\x05bx;'
tRp3144
ag1623
(g1625
S'\xa8\xf0\xc0;'
tRp3145
ag1623
(g1625
S'}\xdf\x83<'
tRp3146
ag1623
(g1625
S'\xa1\xe0\xa2<'
tRp3147
ag1623
(g1625
S'\xe1\xfa}:'
tRp3148
ag1623
(g1625
S'E\x8b\\:'
tRp3149
ag1623
(g1625
S'F)\xae9'
tRp3150
ag1623
(g1625
S'\xff\x992<'
tRp3151
ag1623
(g1625
S'\x8095:'
tRp3152
ag1623
(g1625
S';\xd86<'
tRp3153
ag1623
(g1625
S'\xf2{0:'
tRp3154
ag1623
(g1625
S'\xe01t<'
tRp3155
ag1623
(g1625
S'\xf2\xd2\x1d;'
tRp3156
ag1623
(g1625
S'\x05\xcc\x8f:'
tRp3157
ag1623
(g1625
S'\xfcR\x93:'
tRp3158
ag1623
(g1625
S'\xabH\xc99'
tRp3159
ag1623
(g1625
S'5\xb7\x10:'
tRp3160
ag1623
(g1625
S'g\xfc\x00:'
tRp3161
ag1623
(g1625
S'\x810Q:'
tRp3162
ag1623
(g1625
S'/\xa8*:'
tRp3163
ag1623
(g1625
S'X87:'
tRp3164
ag1623
(g1625
S'/UV:'
tRp3165
ag1623
(g1625
S'\xfe\xfd-:'
tRp3166
ag1623
(g1625
S' \x135:'
tRp3167
ag1623
(g1625
S'\x0e\xb2\x00:'
tRp3168
ag1623
(g1625
S'\x85\xd1\xbe9'
tRp3169
ag1623
(g1625
S'\x02\xd2?:'
tRp3170
ag1623
(g1625
S'\xd8z\xff9'
tRp3171
ag1623
(g1625
S'\xfb\xba\xfe9'
tRp3172
ag1623
(g1625
S'\x7f\x94g:'
tRp3173
ag1623
(g1625
S'\xc2\xe8\x8d:'
tRp3174
ag1623
(g1625
S'\xef\xdd\xaa:'
tRp3175
ag1623
(g1625
S'-\xbe\xec9'
tRp3176
ag1623
(g1625
S'\x96\xf76:'
tRp3177
ag1623
(g1625
S'\xac\x95\xf89'
tRp3178
ag1623
(g1625
S'\xf19\xd88'
tRp3179
ag1623
(g1625
S'\xbe\xdf\xd19'
tRp3180
ag1623
(g1625
S'\xc0f\xbc9'
tRp3181
ag1623
(g1625
S'\x90\x98\r:'
tRp3182
ag1623
(g1625
S'&Z\xd69'
tRp3183
ag1623
(g1625
S'V\xc1\xa49'
tRp3184
ag1623
(g1625
S'\x8a\x99\x03:'
tRp3185
ag1623
(g1625
S'\x9fm\x82:'
tRp3186
ag1623
(g1625
S'\x15\xa9\x01:'
tRp3187
ag1623
(g1625
S'\xfaRm9'
tRp3188
ag1623
(g1625
S'\x93~\xea9'
tRp3189
ag1623
(g1625
S'r\xf3\xb39'
tRp3190
ag1623
(g1625
S'\x12\x1a\x0e:'
tRp3191
ag1623
(g1625
S'\xe4\xb6\xe89'
tRp3192
ag1623
(g1625
S'\xc6+\xcd9'
tRp3193
ag1623
(g1625
S'\xbd\x9c\xa39'
tRp3194
ag1623
(g1625
S'\r\xd9\x01:'
tRp3195
ag1623
(g1625
S'\xce\xf2\x1b:'
tRp3196
ag1623
(g1625
S'\x9c\xc2\xdc9'
tRp3197
ag1623
(g1625
S'\xc4\xe5\xb89'
tRp3198
ag1623
(g1625
S'3\x8aV9'
tRp3199
ag1623
(g1625
S'_\xc1\xf59'
tRp3200
ag1623
(g1625
S'\xb17\xff9'
tRp3201
ag1623
(g1625
S'k\xd2\xcb9'
tRp3202
ag1623
(g1625
S'\\\xc4\xb5:'
tRp3203
ag1623
(g1625
S'J\x9d\xbb9'
tRp3204
ag1623
(g1625
S')\x16\x00:'
tRp3205
ag1623
(g1625
S"<\x03':"
tRp3206
ag1623
(g1625
S'v\x89\x08:'
tRp3207
ag1623
(g1625
S'M\xe8D:'
tRp3208
ag1623
(g1625
S'"j\xcd9'
tRp3209
ag1623
(g1625
S'MJ\x1a:'
tRp3210
ag1623
(g1625
S'\xd5\xd2\x12:'
tRp3211
ag1623
(g1625
S'=\x9c\xdc9'
tRp3212
ag1623
(g1625
S'\x97\x98b:'
tRp3213
ag1623
(g1625
S'?\xe0\x01:'
tRp3214
ag1623
(g1625
S'\xd8r\xdb9'
tRp3215
ag1623
(g1625
S'\xe2\x14O:'
tRp3216
ag1623
(g1625
S'\xf8W0:'
tRp3217
ag1623
(g1625
S'\x18K\x1b7'
tRp3218
ag1623
(g1625
S'w\x0c2:'
tRp3219
ag1623
(g1625
S'\x1f\x88\x999'
tRp3220
ag1623
(g1625
S'\x1f\xce\x16:'
tRp3221
ag1623
(g1625
S'\x9b\x8c\xda9'
tRp3222
ag1623
(g1625
S'5\xf7\x1e9'
tRp3223
ag1623
(g1625
S' \x87B:'
tRp3224
ag1623
(g1625
S'\x84S\x869'
tRp3225
ag1623
(g1625
S'\x08\x0c\x1e:'
tRp3226
ag1623
(g1625
S'\x7f2\x07:'
tRp3227
ag1623
(g1625
S'tl\xff9'
tRp3228
ag1623
(g1625
S'\xd6\xa7\x1a:'
tRp3229
ag1623
(g1625
S'\xbf\x9f(:'
tRp3230
ag1623
(g1625
S'\xeb\x90\x14:'
tRp3231
ag1623
(g1625
S'\xa6\x16\xfc9'
tRp3232
ag1623
(g1625
S'c@\xd79'
tRp3233
ag1623
(g1625
S'\xa1\xea%:'
tRp3234
ag1623
(g1625
S'\xa2\xe8\xe79'
tRp3235
ag1623
(g1625
S'\x14\x82\x979'
tRp3236
ag1623
(g1625
S'\xa9\xc6\n:'
tRp3237
ag1623
(g1625
S'\xbd\x14?9'
tRp3238
ag1623
(g1625
S'\xbb$\x08:'
tRp3239
ag1623
(g1625
S'\x15\xd70:'
tRp3240
ag1623
(g1625
S'x0l:'
tRp3241
ag1623
(g1625
S'\xf1n\xe89'
tRp3242
ag1623
(g1625
S'\xe2pg8'
tRp3243
ag1623
(g1625
S'-\xe1\xf69'
tRp3244
ag1623
(g1625
S'\xc3U\x02:'
tRp3245
at.