((lp1
(I2
cnumpy.core.multiarray
scalar
p2
(cnumpy
dtype
p3
(S'u2'
I0
I1
tRp4
(I3
S'<'
NNNI-1
I-1
I0
tbS'\xd1\x00'
tRp5
tp6
a(I3
g2
(g4
S'\xe9\x00'
tRp7
tp8
a(I4
g2
(g4
S'\x0c\x00'
tRp9
tp10
a(I5
g2
(g4
S'\n\x00'
tRp11
tp12
a(I6
g2
(g4
S'\x0f\x00'
tRp13
tp14
a(I7
g2
(g4
S'\r\x00'
tRp15
tp16
a(I8
g2
(g4
S'\xb8\x00'
tRp17
tp18
a(I9
g2
(g4
S'\x15\x00'
tRp19
tp20
a(I10
g2
(g4
S'\x14\x00'
tRp21
tp22
a(I11
g2
(g4
S'\x17\x00'
tRp23
tp24
a(I12
g2
(g4
S'\x10\x00'
tRp25
tp26
a(I13
g2
(g4
S'\x12\x00'
tRp27
tp28
a(I14
g2
(g4
S'\x18\x00'
tRp29
tp30
a(I15
g2
(g4
S'\x92\x00'
tRp31
tp32
a(I16
g2
(g4
S'\x1b\x00'
tRp33
tp34
a(I17
g2
(g4
S'\x1f\x00'
tRp35
tp36
a(I18
g2
(g4
S'\x1a\x00'
tRp37
tp38
a(I19
g2
(g4
S'\x93\x00'
tRp39
tp40
a(I20
g2
(g4
S'\xa3\x00'
tRp41
tp42
a(I21
g2
(g4
S'\x1e\x00'
tRp43
tp44
a(I22
g2
(g4
S'\xa4\x00'
tRp45
tp46
a(I23
g2
(g4
S'#\x00'
tRp47
tp48
a(I24
g2
(g4
S'$\x00'
tRp49
tp50
a(I25
g2
(g4
S'!\x00'
tRp51
tp52
a(I26
g2
(g4
S')\x00'
tRp53
tp54
a(I27
g2
(g4
S'&\x00'
tRp55
tp56
a(I28
g2
(g4
S'(\x00'
tRp57
tp58
a(I29
g2
(g4
S'\x8a\x00'
tRp59
tp60
a(I30
g2
(g4
S'%\x00'
tRp61
tp62
a(I31
g2
(g4
S'*\x00'
tRp63
tp64
a(I32
g2
(g4
S'-\x00'
tRp65
tp66
a(I33
g2
(g4
S"'\x00"
tRp67
tp68
a(I34
g2
(g4
S'\x95\x00'
tRp69
tp70
a(I35
g2
(g4
S'.\x00'
tRp71
tp72
a(I36
g2
(g4
S'/\x00'
tRp73
tp74
a(I37
g2
(g4
S'0\x00'
tRp75
tp76
a(I38
g2
(g4
S'1\x00'
tRp77
tp78
a(I39
g2
(g4
S'+\x00'
tRp79
tp80
a(I40
g2
(g4
S'\x8b\x00'
tRp81
tp82
a(I41
g2
(g4
S'\xb2\x00'
tRp83
tp84
a(I42
g2
(g4
S'2\x00'
tRp85
tp86
a(I43
g2
(g4
S'\x8c\x00'
tRp87
tp88
a(I44
g2
(g4
S'\x8e\x00'
tRp89
tp90
a(I45
g2
(g4
S'\x8f\x00'
tRp91
tp92
a(I46
g81
tp93
a(I47
g2
(g4
S'\xd4\x00'
tRp94
tp95
a(I48
g2
(g4
S'4\x00'
tRp96
tp97
a(I49
g2
(g4
S'5\x00'
tRp98
tp99
a(I50
g2
(g4
S'8\x00'
tRp100
tp101
a(I51
g2
(g4
S'3\x00'
tRp102
tp103
a(I52
g2
(g4
S'7\x00'
tRp104
tp105
a(I53
g2
(g4
S'\x9f\x00'
tRp106
tp107
a(I54
g2
(g4
S'F\x00'
tRp108
tp109
a(I55
g2
(g4
S'\xdc\x00'
tRp110
tp111
a(I56
g2
(g4
S'9\x00'
tRp112
tp113
a(I57
g2
(g4
S'\xc1\x00'
tRp114
tp115
a(I58
g2
(g4
S'@\x00'
tRp116
tp117
a(I59
g2
(g4
S'=\x00'
tRp118
tp119
a(I60
g2
(g4
S'E\x00'
tRp120
tp121
a(I61
g2
(g4
S'\x01\x00'
tRp122
tp123
a(I62
g2
(g4
S'C\x00'
tRp124
tp125
a(I63
g2
(g4
S'M\x00'
tRp126
tp127
a(I64
g2
(g4
S'\xbb\x00'
tRp128
tp129
a(I65
g122
tp130
a(I66
g2
(g4
S'\x90\x00'
tRp131
tp132
a(I67
g2
(g4
S'A\x00'
tRp133
tp134
a(I68
g122
tp135
a(I69
g2
(g4
S'O\x00'
tRp136
tp137
a(I70
g122
tp138
a(I71
g2
(g4
S'L\x00'
tRp139
tp140
a(I72
g2
(g4
S'T\x00'
tRp141
tp142
a(I73
g2
(g4
S'U\x00'
tRp143
tp144
a(I74
g122
tp145
a(I75
g122
tp146
a(I76
g2
(g4
S'Z\x00'
tRp147
tp148
a(I77
g2
(g4
S'\xbd\x00'
tRp149
tp150
a(I78
g122
tp151
a(I79
g122
tp152
a(I80
g122
tp153
a(I81
g122
tp154
a(I82
g122
tp155
a(I83
g2
(g4
S'W\x00'
tRp156
tp157
a(I84
g122
tp158
a(I85
g122
tp159
a(I86
g122
tp160
a(I87
g147
tp161
a(I88
g122
tp162
a(I89
g122
tp163
a(I90
g122
tp164
a(I91
g122
tp165
a(I92
g2
(g4
S'\xf6\x00'
tRp166
tp167
a(I93
g122
tp168
a(I94
g122
tp169
a(I95
g122
tp170
a(I96
g122
tp171
a(I97
g122
tp172
a(I98
g122
tp173
a(I99
g122
tp174
a(I100
g122
tp175
a(I101
g122
tp176
a(I102
g122
tp177
a(I103
g122
tp178
a(I104
g122
tp179
a(I105
g122
tp180
a(I106
g122
tp181
a(I107
g122
tp182
a(I108
g122
tp183
a(I109
g122
tp184
a(I110
g122
tp185
a(I111
g122
tp186
a(I112
g122
tp187
a(I113
g122
tp188
a(I114
g122
tp189
a(I115
g122
tp190
a(I116
g122
tp191
a(I117
g122
tp192
a(I118
g122
tp193
a(I119
g122
tp194
a(I120
g122
tp195
a(I121
g122
tp196
a(I122
g122
tp197
a(I123
g122
tp198
a(I124
g122
tp199
a(I125
g122
tp200
a(I126
g122
tp201
a(I127
g122
tp202
a(I128
g122
tp203
a(I129
g122
tp204
a(I130
g122
tp205
a(I131
g122
tp206
a(I132
g122
tp207
a(I133
g122
tp208
a(I134
g122
tp209
a(I135
g122
tp210
a(I136
g122
tp211
a(I137
g122
tp212
a(I138
g122
tp213
a(I139
g122
tp214
a(I140
g2
(g4
S'<\x00'
tRp215
tp216
a(I141
g2
(g4
S'b\x00'
tRp217
tp218
a(I142
g122
tp219
a(I143
g2
(g4
S'\xfe\x00'
tRp220
tp221
a(I144
g2
(g4
S'"\x00'
tRp222
tp223
a(I145
g2
(g4
S'D\x00'
tRp224
tp225
a(I146
g2
(g4
S'Q\x00'
tRp226
tp227
a(I147
g122
tp228
a(I148
g122
tp229
a(I149
g2
(g4
S'e\x00'
tRp230
tp231
a(I150
g122
tp232
a(I151
g2
(g4
S'\xa6\x00'
tRp233
tp234
a(I152
g122
tp235
a(I153
g122
tp236
a(I154
g2
(g4
S'\x08\x01'
tRp237
tp238
a(I155
g2
(g4
S'\xcb\x00'
tRp239
tp240
a(I156
g2
(g4
S'\xb1\x00'
tRp241
tp242
a(I157
g2
(g4
S'\x96\x00'
tRp243
tp244
a(I158
g2
(g4
S'H\x00'
tRp245
tp246
a(I159
g2
(g4
S'G\x00'
tRp247
tp248
a(I160
g2
(g4
S'X\x00'
tRp249
tp250
a(I161
g2
(g4
S'^\x00'
tRp251
tp252
a(I162
g122
tp253
a(I163
g2
(g4
S'\xe3\x00'
tRp254
tp255
a(I164
g2
(g4
S'>\x00'
tRp256
tp257
a(I165
g2
(g4
S'P\x00'
tRp258
tp259
a(I166
g2
(g4
S']\x00'
tRp260
tp261
a(I167
g2
(g4
S'g\x00'
tRp262
tp263
a(I168
g2
(g4
S'\xe7\x00'
tRp264
tp265
a(I169
g2
(g4
S'\xea\x00'
tRp266
tp267
a(I170
g2
(g4
S'\xa2\x00'
tRp268
tp269
a(I171
g2
(g4
S'\xf9\x00'
tRp270
tp271
a(I172
g2
(g4
S'\xd2\x00'
tRp272
tp273
a(I173
g2
(g4
S'\x8d\x00'
tRp274
tp275
a(I174
g2
(g4
S'6\x00'
tRp276
tp277
a(I175
g122
tp278
a(I176
g122
tp279
a(I177
g2
(g4
S'\xf8\x00'
tRp280
tp281
a(I178
g33
tp282
a(I179
g108
tp283
a(I180
g2
(g4
S'_\x00'
tRp284
tp285
a(I181
g122
tp286
a(I182
g262
tp287
a(I183
g2
(g4
S'\x9c\x00'
tRp288
tp289
a(I184
g122
tp290
a(I185
g2
(g4
S'\x07\x01'
tRp291
tp292
a(I186
g2
(g4
S'\xa5\x00'
tRp293
tp294
a(I187
g2
(g4
S'\xc0\x00'
tRp295
tp296
a(I188
g2
(g4
S'N\x00'
tRp297
tp298
a(I189
g2
(g4
S'J\x00'
tRp299
tp300
a(I190
g2
(g4
S'[\x00'
tRp301
tp302
a(I191
g122
tp303
a(I192
g2
(g4
S'\x0c\x01'
tRp304
tp305
a(I193
g110
tp306
a(I194
g83
tp307
a(I195
g102
tp308
a(I196
g122
tp309
a(I197
g122
tp310
a(I198
g122
tp311
a(I199
g2
(g4
S'\xf2\x00'
tRp312
tp313
a(I200
g81
tp314
a(I201
g2
(g4
S':\x00'
tRp315
tp316
a(I202
g2
(g4
S'B\x00'
tRp317
tp318
a(I203
g2
(g4
S'k\x00'
tRp319
tp320
a(I204
g122
tp321
a(I205
g2
(g4
S'\xae\x00'
tRp322
tp323
a(I206
g2
(g4
S'\xcc\x00'
tRp324
tp325
a(I207
g2
(g4
S'K\x00'
tRp326
tp327
a(I208
g156
tp328
a(I209
g2
(g4
S'a\x00'
tRp329
tp330
a(I210
g122
tp331
a(I211
g69
tp332
a(I212
g2
(g4
S'\x97\x00'
tRp333
tp334
a(I213
g2
(g4
S';\x00'
tRp335
tp336
a(I214
g2
(g4
S'I\x00'
tRp337
tp338
a(I215
g2
(g4
S'R\x00'
tRp339
tp340
a(I216
g2
(g4
S'S\x00'
tRp341
tp342
a(I217
g2
(g4
S'Y\x00'
tRp343
tp344
a(I218
g2
(g4
S'd\x00'
tRp345
tp346
a(I219
g2
(g4
S'\xd7\x00'
tRp347
tp348
a(I220
g122
tp349
a(I221
g122
tp350
a(I222
g2
(g4
S' \x01'
tRp351
tp352
a(I223
g2
(g4
S'\xff\x00'
tRp353
tp354
a(I224
g2
(g4
S'\xb9\x00'
tRp355
tp356
a(I225
g87
tp357
a(I226
g2
(g4
S'?\x00'
tRp358
tp359
a(I227
g106
tp360
a(I228
g2
(g4
S'c\x00'
tRp361
tp362
a(I229
g2
(g4
S'\xc8\x00'
tRp363
tp364
a(I230
g122
tp365
a(I231
g2
(g4
S'\xab\x00'
tRp366
tp367
a(I232
g2
(g4
S'\xdb\x00'
tRp368
tp369
a(I233
g126
tp370
a(I234
g2
(g4
S'm\x00'
tRp371
tp372
a(I235
g2
(g4
S'q\x00'
tRp373
tp374
a(I236
g2
(g4
S'{\x00'
tRp375
tp376
a(I237
g2
(g4
S'\xb7\x00'
tRp377
tp378
a(I238
g122
tp379
a(I239
g122
tp380
a(I240
g122
tp381
a(I241
g122
tp382
a(I242
g122
tp383
a(I243
g326
tp384
a(I244
g2
(g4
S'\x99\x00'
tRp385
tp386
a(I245
g143
tp387
a(I246
g147
tp388
a(I247
g2
(g4
S'f\x00'
tRp389
tp390
a(I248
g2
(g4
S'l\x00'
tRp391
tp392
a(I249
g2
(g4
S'o\x00'
tRp393
tp394
a(I250
g122
tp395
a(I251
g2
(g4
S'\r\x01'
tRp396
tp397
a(I252
g2
(g4
S'!\x01'
tRp398
tp399
a(I253
g2
(g4
S'\x15\x01'
tRp400
tp401
a(I254
g2
(g4
S'\x98\x00'
tRp402
tp403
a(I255
g2
(g4
S'V\x00'
tRp404
tp405
a(I256
g2
(g4
S'\\\x00'
tRp406
tp407
a(I257
g2
(g4
S'`\x00'
tRp408
tp409
a(I258
g2
(g4
S'h\x00'
tRp410
tp411
a(I259
g2
(g4
S'\xbf\x00'
tRp412
tp413
a(I260
g2
(g4
S'\x9e\x00'
tRp414
tp415
a(I261
g122
tp416
a(I262
g2
(g4
S'"\x01'
tRp417
tp418
a(I263
g2
(g4
S'\xdd\x00'
tRp419
tp420
a(I264
g2
(g4
S'\xc2\x00'
tRp421
tp422
a(I265
g230
tp423
a(I266
g2
(g4
S's\x00'
tRp424
tp425
a(I267
g122
tp426
a(I268
g2
(g4
S'\xf3\x00'
tRp427
tp428
a(I269
g2
(g4
S'\xeb\x00'
tRp429
tp430
a(I270
g114
tp431
a(I271
g2
(g4
S'z\x00'
tRp432
tp433
a(I272
g363
tp434
a(I273
g122
tp435
a(I274
g264
tp436
a(I275
g2
(g4
S'\\\x01'
tRp437
tp438
a(I276
g2
(g4
S'\xa7\x00'
tRp439
tp440
a(I277
g131
tp441
a(I278
g149
tp442
a(I279
g2
(g4
S'n\x00'
tRp443
tp444
a(I280
g122
tp445
a(I281
g2
(g4
S'\xec\x00'
tRp446
tp447
a(I282
g94
tp448
a(I283
g2
(g4
S'\xf4\x00'
tRp449
tp450
a(I284
g128
tp451
a(I285
g2
(g4
S'\xac\x00'
tRp452
tp453
a(I286
g2
(g4
S'\xe0\x00'
tRp454
tp455
a(I287
g2
(g4
S'i\x00'
tRp456
tp457
a(I288
g122
tp458
a(I289
g2
(g4
S'~\x00'
tRp459
tp460
a(I290
g122
tp461
a(I291
g2
(g4
S'-\x01'
tRp462
tp463
a(I292
g2
(g4
S'\xd5\x00'
tRp464
tp465
a(I293
g2
(g4
S'\xa8\x00'
tRp466
tp467
a(I294
g2
(g4
S'}\x00'
tRp468
tp469
a(I295
g2
(g4
S'[\x01'
tRp470
tp471
a(I296
g2
(g4
S'p\x01'
tRp472
tp473
a(I297
g2
(g4
S'8\x01'
tRp474
tp475
a(I298
g2
(g4
S'\t\x01'
tRp476
tp477
a(I299
g2
(g4
S'\n\x01'
tRp478
tp479
a(I300
g83
tp480
a(I301
g233
tp481
a(I302
g2
(g4
S'\xa0\x00'
tRp482
tp483
a(I303
g2
(g4
S'j\x00'
tRp484
tp485
a(I304
g2
(g4
S'p\x00'
tRp486
tp487
a(I305
g2
(g4
S't\x00'
tRp488
tp489
a(I306
g2
(g4
S'x\x00'
tRp490
tp491
a(I307
g2
(g4
S'y\x00'
tRp492
tp493
a(I308
g2
(g4
S'\x81\x00'
tRp494
tp495
a(I309
g2
(g4
S'q\x01'
tRp496
tp497
a(I310
g2
(g4
S'l\x01'
tRp498
tp499
a(I311
g2
(g4
S'9\x01'
tRp500
tp501
a(I312
g2
(g4
S'2\x01'
tRp502
tp503
a(I313
g2
(g4
S'.\x01'
tRp504
tp505
a(I314
g2
(g4
S'\x06\x01'
tRp506
tp507
a(I315
g108
tp508
a(I316
g2
(g4
S'\x9a\x00'
tRp509
tp510
a(I317
g2
(g4
S'r\x00'
tRp511
tp512
a(I318
g2
(g4
S'\xa1\x00'
tRp513
tp514
a(I319
g2
(g4
S'\x9c\x01'
tRp515
tp516
a(I320
g2
(g4
S'\x00\x01'
tRp517
tp518
a(I321
g2
(g4
S'\xfa\x00'
tRp519
tp520
a(I322
g2
(g4
S'\xba\x00'
tRp521
tp522
a(I323
g2
(g4
S'\x17\x01'
tRp523
tp524
a(I324
g2
(g4
S'#\x01'
tRp525
tp526
a(I325
g2
(g4
S'$\x01'
tRp527
tp528
a(I326
g260
tp529
a(I327
g345
tp530
a(I328
g494
tp531
a(I329
g2
(g4
S'C\x01'
tRp532
tp533
a(I330
g2
(g4
S'\xc3\x00'
tRp534
tp535
a(I331
g2
(g4
S'\xde\x00'
tRp536
tp537
a(I332
g2
(g4
S'\xc5\x00'
tRp538
tp539
a(I333
g319
tp540
a(I334
g2
(g4
S'w\x00'
tRp541
tp542
a(I335
g2
(g4
S'\x80\x00'
tRp543
tp544
a(I336
g122
tp545
a(I337
g2
(g4
S'\x16\x01'
tRp546
tp547
a(I338
g288
tp548
a(I339
g2
(g4
S'\x91\x00'
tRp549
tp550
a(I340
g2
(g4
S'\xc9\x00'
tRp551
tp552
a(I341
g2
(g4
S'k\x01'
tRp553
tp554
a(I342
g2
(g4
S'B\x01'
tRp555
tp556
a(I343
g2
(g4
S's\x01'
tRp557
tp558
a(I344
g2
(g4
S'\x18\x01'
tRp559
tp560
a(I345
g2
(g4
S'\xf5\x00'
tRp561
tp562
a(I346
g2
(g4
S'\xc4\x00'
tRp563
tp564
a(I347
g2
(g4
S'\xbc\x00'
tRp565
tp566
a(I348
g2
(g4
S'\xe5\x00'
tRp567
tp568
a(I349
g2
(g4
S'\xc6\x00'
tRp569
tp570
a(I350
g2
(g4
S'v\x00'
tRp571
tp572
a(I351
g2
(g4
S'\x7f\x00'
tRp573
tp574
a(I352
g2
(g4
S'\xac\x01'
tRp575
tp576
a(I353
g2
(g4
S'\x88\x01'
tRp577
tp578
a(I354
g2
(g4
S'\x89\x01'
tRp579
tp580
a(I355
g2
(g4
S'd\x01'
tRp581
tp582
a(I356
g2
(g4
S'X\x01'
tRp583
tp584
a(I357
g2
(g4
S'\x0e\x01'
tRp585
tp586
a(I358
g2
(g4
S'\x0b\x01'
tRp587
tp588
a(I359
g2
(g4
S'&\x01'
tRp589
tp590
a(I360
g2
(g4
S'\xe4\x00'
tRp591
tp592
a(I361
g2
(g4
S'\x01\x01'
tRp593
tp594
a(I362
g375
tp595
a(I363
g513
tp596
a(I364
g2
(g4
S'1\x01'
tRp597
tp598
a(I365
g2
(g4
S'R\x01'
tRp599
tp600
a(I366
g94
tp601
a(I367
g2
(g4
S':\x01'
tRp602
tp603
a(I368
g2
(g4
S'\xb5\x00'
tRp604
tp605
a(I369
g373
tp606
a(I370
g2
(g4
S'r\x01'
tRp607
tp608
a(I371
g2
(g4
S'\x8a\x01'
tRp609
tp610
a(I372
g2
(g4
S'M\x01'
tRp611
tp612
a(I373
g2
(g4
S'%\x01'
tRp613
tp614
a(I374
g2
(g4
S'D\x01'
tRp615
tp616
a(I375
g2
(g4
S'\xb4\x00'
tRp617
tp618
a(I376
g466
tp619
a(I377
g2
(g4
S'\xce\x00'
tRp620
tp621
a(I378
g2
(g4
S'u\x00'
tRp622
tp623
a(I379
g2
(g4
S'\xd9\x00'
tRp624
tp625
a(I380
g2
(g4
S'Y\x01'
tRp626
tp627
a(I381
g2
(g4
S'Z\x01'
tRp628
tp629
a(I382
g2
(g4
S'\x9b\x00'
tRp630
tp631
a(I383
g393
tp632
a(I384
g2
(g4
S'\x85\x00'
tRp633
tp634
a(I385
g2
(g4
S'\xa2\x01'
tRp635
tp636
a(I386
g2
(g4
S'e\x01'
tRp637
tp638
a(I387
g2
(g4
S']\x01'
tRp639
tp640
a(I388
g523
tp641
a(I389
g2
(g4
S'*\x01'
tRp642
tp643
a(I390
g2
(g4
S';\x01'
tRp644
tp645
a(I391
g2
(g4
S'+\x01'
tRp646
tp647
a(I392
g2
(g4
S'\xd6\x00'
tRp648
tp649
a(I393
g2
(g4
S'\xcd\x00'
tRp650
tp651
a(I394
g2
(g4
S'\xb3\x00'
tRp652
tp653
a(I395
g149
tp654
a(I396
g2
(g4
S'\x03\x01'
tRp655
tp656
a(I397
g2
(g4
S'\xe6\x00'
tRp657
tp658
a(I398
g2
(g4
S'\xbe\x00'
tRp659
tp660
a(I399
g2
(g4
S'\xa9\x00'
tRp661
tp662
a(I400
g2
(g4
S'\xaa\x00'
tRp663
tp664
a(I401
g322
tp665
a(I402
g2
(g4
S'\x86\x00'
tRp666
tp667
a(I403
g2
(g4
S'\x94\x00'
tRp668
tp669
a(I404
g2
(g4
S'\xb7\x01'
tRp670
tp671
a(I405
g2
(g4
S'\xa8\x01'
tRp672
tp673
a(I406
g2
(g4
S'\x8b\x01'
tRp674
tp675
a(I407
g2
(g4
S'\xdf\x00'
tRp676
tp677
a(I408
g2
(g4
S'\x88\x00'
tRp678
tp679
a(I409
g114
tp680
a(I410
g2
(g4
S'\x0f\x01'
tRp681
tp682
a(I411
g454
tp683
a(I412
g2
(g4
S'\xad\x00'
tRp684
tp685
a(I413
g2
(g4
S'\xb6\x00'
tRp686
tp687
a(I414
g2
(g4
S'\x82\x00'
tRp688
tp689
a(I415
g2
(g4
S'\x83\x00'
tRp690
tp691
a(I416
g2
(g4
S'\x84\x00'
tRp692
tp693
a(I417
g2
(g4
S'\xb0\x00'
tRp694
tp695
a(I418
g2
(g4
S'\x87\x00'
tRp696
tp697
a(I419
g2
(g4
S'\xed\x00'
tRp698
tp699
a(I420
g166
tp700
a(I421
g2
(g4
S'\x9d\x00'
tRp701
tp702
a(I422
g2
(g4
S'|\x00'
tRp703
tp704
a(I423
g2
(g4
S'^\x01'
tRp705
tp706
a(I424
g2
(g4
S'\x11\x01'
tRp707
tp708
a(I425
g414
tp709
a(I426
g694
tp710
a(I427
g2
(g4
S'\x92\x01'
tRp711
tp712
a(I428
g639
tp713
a(I429
g2
(g4
S'f\x01'
tRp714
tp715
a(I430
g642
tp716
a(I431
g2
(g4
S'\x19\x01'
tRp717
tp718
a(I432
g2
(g4
S'<\x01'
tRp719
tp720
a(I433
g2
(g4
S'\x02\x01'
tRp721
tp722
a(I434
g393
tp723
a(I435
g2
(g4
S'\xc7\x00'
tRp724
tp725
a(I436
g377
tp726
a(I437
g2
(g4
S't\x01'
tRp727
tp728
a(I438
g2
(g4
S'E\x01'
tRp729
tp730
a(I439
g2
(g4
S'\x10\x01'
tRp731
tp732
a(I440
g2
(g4
S'\xfb\x00'
tRp733
tp734
a(I441
g2
(g4
S'\xe2\x00'
tRp735
tp736
a(I442
g322
tp737
a(I443
g264
tp738
a(I444
g494
tp739
a(I445
g2
(g4
S'\xe1\x00'
tRp740
tp741
a(I446
g366
tp742
a(I447
g2
(g4
S'\xe6\x01'
tRp743
tp744
a(I448
g504
tp745
a(I449
g2
(g4
S'\x7f\x01'
tRp746
tp747
a(I450
g2
(g4
S'\x8d\x01'
tRp748
tp749
a(I451
g2
(g4
S'N\x01'
tRp750
tp751
a(I452
g363
tp752
a(I453
g551
tp753
a(I454
g412
tp754
a(I455
g513
tp755
a(I456
g2
(g4
S'\xe7\x01'
tRp756
tp757
a(I457
g2
(g4
S'\xbb\x01'
tRp758
tp759
a(I458
g498
tp760
a(I459
g2
(g4
S'\x9a\x01'
tRp761
tp762
a(I460
g2
(g4
S'm\x01'
tRp763
tp764
a(I461
g2
(g4
S'S\x01'
tRp765
tp766
a(I462
g2
(g4
S'T\x01'
tRp767
tp768
a(I463
g2
(g4
S'3\x01'
tRp769
tp770
a(I464
g2
(g4
S'F\x01'
tRp771
tp772
a(I465
g2
(g4
S'\xee\x00'
tRp773
tp774
a(I466
g2
(g4
S'\xaf\x00'
tRp775
tp776
a(I467
g2
(g4
S'\xe9\x01'
tRp777
tp778
a(I468
g2
(g4
S'\xc6\x01'
tRp779
tp780
a(I469
g2
(g4
S'\xde\x01'
tRp781
tp782
a(I470
g2
(g4
S'\xa3\x01'
tRp783
tp784
a(I471
g2
(g4
S'g\x01'
tRp785
tp786
a(I472
g2
(g4
S'\x94\x01'
tRp787
tp788
a(I473
g2
(g4
S'v\x01'
tRp789
tp790
a(I474
g2
(g4
S'U\x01'
tRp791
tp792
a(I475
g2
(g4
S'O\x01'
tRp793
tp794
a(I476
g2
(g4
S'4\x01'
tRp795
tp796
a(I477
g2
(g4
S'\x1a\x01'
tRp797
tp798
a(I478
g2
(g4
S'\xcf\x00'
tRp799
tp800
a(I479
g2
(g4
S'\xd0\x00'
tRp801
tp802
a(I480
g2
(g4
S'\xa9\x01'
tRp803
tp804
a(I481
g2
(g4
S'\xc7\x01'
tRp805
tp806
a(I482
g2
(g4
S'u\x01'
tRp807
tp808
a(I483
g2
(g4
S',\x01'
tRp809
tp810
a(I484
g2
(g4
S'(\x01'
tRp811
tp812
a(I485
g2
(g4
S'\x1c\x01'
tRp813
tp814
a(I486
g347
tp815
a(I487
g2
(g4
S'\xd8\x00'
tRp816
tp817
a(I488
g668
tp818
a(I489
g2
(g4
S'\t\x02'
tRp819
tp820
a(I490
g2
(g4
S'\n\x02'
tRp821
tp822
a(I491
g2
(g4
S'\xb2\x01'
tRp823
tp824
a(I492
g2
(g4
S'\x93\x01'
tRp825
tp826
a(I493
g2
(g4
S'\xad\x01'
tRp827
tp828
a(I494
g2
(g4
S'\x1b\x01'
tRp829
tp830
a(I495
g2
(g4
S'G\x01'
tRp831
tp832
a(I496
g2
(g4
S"'\x01"
tRp833
tp834
a(I497
g2
(g4
S'\x12\x01'
tRp835
tp836
a(I498
g2
(g4
S'\xea\x01'
tRp837
tp838
a(I499
g2
(g4
S'\x8c\x01'
tRp839
tp840
a(I500
g2
(g4
S'_\x01'
tRp841
tp842
a(I501
g765
tp843
a(I502
g2
(g4
S'n\x01'
tRp844
tp845
a(I503
g2
(g4
S'\x04\x01'
tRp846
tp847
a(I504
g692
tp848
a(I505
g2
(g4
S'\xd2\x01'
tRp849
tp850
a(I506
g2
(g4
S'\x8e\x01'
tRp851
tp852
a(I507
g694
tp853
a(I508
g2
(g4
S'\x11\x02'
tRp854
tp855
a(I509
g2
(g4
S'\xe8\x01'
tRp856
tp857
a(I510
g2
(g4
S'\x9d\x01'
tRp858
tp859
a(I511
g2
(g4
S'\x95\x01'
tRp860
tp861
a(I512
g2
(g4
S'V\x01'
tRp862
tp863
a(I513
g2
(g4
S'5\x01'
tRp864
tp865
a(I514
g2
(g4
S'a\x01'
tRp866
tp867
a(I515
g2
(g4
S'\x05\x01'
tRp868
tp869
a(I516
g2
(g4
S'\xfa\x01'
tRp870
tp871
a(I517
g2
(g4
S'\xd3\x01'
tRp872
tp873
a(I518
g2
(g4
S'\xd5\x01'
tRp874
tp875
a(I519
g2
(g4
S'\xb4\x01'
tRp876
tp877
a(I520
g2
(g4
S'\x90\x01'
tRp878
tp879
a(I521
g2
(g4
S'=\x01'
tRp880
tp881
a(I522
g2
(g4
S'\x1d\x01'
tRp882
tp883
a(I523
g2
(g4
S'\xca\x00'
tRp884
tp885
a(I524
g2
(g4
S'\x03\x02'
tRp886
tp887
a(I525
g837
tp888
a(I526
g2
(g4
S'\xbc\x01'
tRp889
tp890
a(I527
g2
(g4
S'\x80\x01'
tRp891
tp892
a(I528
g2
(g4
S'`\x01'
tRp893
tp894
a(I529
g2
(g4
S'\xfc\x00'
tRp895
tp896
a(I530
g2
(g4
S'\xf1\x00'
tRp897
tp898
a(I531
g2
(g4
S'\xf0\x00'
tRp899
tp900
a(I532
g2
(g4
S'\xf7\x00'
tRp901
tp902
a(I533
g2
(g4
S'\xe8\x00'
tRp903
tp904
a(I534
g624
tp905
a(I535
g2
(g4
S'\xdf\x01'
tRp906
tp907
a(I536
g2
(g4
S'\xcd\x01'
tRp908
tp909
a(I537
g2
(g4
S'\xbd\x01'
tRp910
tp911
a(I538
g2
(g4
S'\xb3\x01'
tRp912
tp913
a(I539
g2
(g4
S'h\x01'
tRp914
tp915
a(I540
g2
(g4
S'\x82\x01'
tRp916
tp917
a(I541
g2
(g4
S'J\x01'
tRp918
tp919
a(I542
g2
(g4
S'\xef\x00'
tRp920
tp921
a(I543
g2
(g4
S'\x12\x02'
tRp922
tp923
a(I544
g2
(g4
S'\xf2\x01'
tRp924
tp925
a(I545
g2
(g4
S'\xfb\x01'
tRp926
tp927
a(I546
g2
(g4
S'\xa4\x01'
tRp928
tp929
a(I547
g2
(g4
S'\x13\x01'
tRp930
tp931
a(I548
g2
(g4
S'\xfd\x00'
tRp932
tp933
a(I549
g837
tp934
a(I550
g2
(g4
S'\x14\x02'
tRp935
tp936
a(I551
g2
(g4
S'\xe0\x01'
tRp937
tp938
a(I552
g2
(g4
S'\xc8\x01'
tRp939
tp940
a(I553
g2
(g4
S'\xd8\x01'
tRp941
tp942
a(I554
g2
(g4
S'\x9b\x01'
tRp943
tp944
a(I555
g2
(g4
S'\x81\x01'
tRp945
tp946
a(I556
g2
(g4
S'H\x01'
tRp947
tp948
a(I557
g2
(g4
S'>\x01'
tRp949
tp950
a(I558
g2
(g4
S'b\x01'
tRp951
tp952
a(I559
g2
(g4
S'P\x01'
tRp953
tp954
a(I560
g2
(g4
S'\xda\x00'
tRp955
tp956
a(I561
g2
(g4
S'\xf3\x01'
tRp957
tp958
a(I562
g2
(g4
S'\xae\x01'
tRp959
tp960
a(I563
g2
(g4
S'\x8f\x01'
tRp961
tp962
a(I564
g2
(g4
S'\xaf\x01'
tRp963
tp964
a(I565
g2
(g4
S'w\x01'
tRp965
tp966
a(I566
g2
(g4
S'i\x01'
tRp967
tp968
a(I567
g2
(g4
S'\x9e\x01'
tRp969
tp970
a(I568
g866
tp971
a(I569
g2
(g4
S'7\x01'
tRp972
tp973
a(I570
g2
(g4
S'K\x02'
tRp974
tp975
a(I571
g2
(g4
S'\x13\x02'
tRp976
tp977
a(I572
g2
(g4
S'\xd4\x01'
tRp978
tp979
a(I573
g2
(g4
S'\xec\x01'
tRp980
tp981
a(I574
g2
(g4
S'\xbe\x01'
tRp982
tp983
a(I575
g2
(g4
S'L\x01'
tRp984
tp985
a(I576
g2
(g4
S'\x14\x01'
tRp986
tp987
a(I577
g2
(g4
S'\xbf\x01'
tRp988
tp989
a(I578
g2
(g4
S'\xb8\x01'
tRp990
tp991
a(I579
g2
(g4
S'x\x01'
tRp992
tp993
a(I580
g2
(g4
S'I\x01'
tRp994
tp995
a(I581
g2
(g4
S'6\x01'
tRp996
tp997
a(I582
g2
(g4
S'?\x01'
tRp998
tp999
a(I583
g2
(g4
S'0\x01'
tRp1000
tp1001
a(I584
g2
(g4
S'\x15\x02'
tRp1002
tp1003
a(I585
g2
(g4
S'\xc9\x01'
tRp1004
tp1005
a(I586
g2
(g4
S'\x96\x01'
tRp1006
tp1007
a(I587
g2
(g4
S'z\x01'
tRp1008
tp1009
a(I588
g2
(g4
S'/\x01'
tRp1010
tp1011
a(I589
g2
(g4
S'K\x01'
tRp1012
tp1013
a(I590
g2
(g4
S'\xeb\x01'
tRp1014
tp1015
a(I591
g2
(g4
S'\x83\x01'
tRp1016
tp1017
a(I592
g2
(g4
S'\x91\x01'
tRp1018
tp1019
a(I593
g2
(g4
S')\x01'
tRp1020
tp1021
a(I594
g2
(g4
S'B\x02'
tRp1022
tp1023
a(I595
g2
(g4
S'P\x02'
tRp1024
tp1025
a(I596
g2
(g4
S')\x02'
tRp1026
tp1027
a(I597
g2
(g4
S'\x04\x02'
tRp1028
tp1029
a(I598
g2
(g4
S'\xed\x01'
tRp1030
tp1031
a(I599
g2
(g4
S'\xd9\x01'
tRp1032
tp1033
a(I600
g2
(g4
S'\xaa\x01'
tRp1034
tp1035
a(I601
g2
(g4
S'y\x01'
tRp1036
tp1037
a(I602
g2
(g4
S'|\x01'
tRp1038
tp1039
a(I603
g2
(g4
S'\x0b\x02'
tRp1040
tp1041
a(I604
g2
(g4
S'j\x01'
tRp1042
tp1043
a(I605
g2
(g4
S'\x1e\x01'
tRp1044
tp1045
a(I606
g2
(g4
S'C\x02'
tRp1046
tp1047
a(I607
g2
(g4
S'\x16\x02'
tRp1048
tp1049
a(I608
g2
(g4
S'8\x02'
tRp1050
tp1051
a(I609
g2
(g4
S'\xb5\x01'
tRp1052
tp1053
a(I610
g2
(g4
S'\xdb\x01'
tRp1054
tp1055
a(I611
g2
(g4
S'{\x01'
tRp1056
tp1057
a(I612
g2
(g4
S'\x84\x01'
tRp1058
tp1059
a(I613
g2
(g4
S'W\x01'
tRp1060
tp1061
a(I614
g2
(g4
S'\x1f\x01'
tRp1062
tp1063
a(I615
g2
(g4
S'*\x02'
tRp1064
tp1065
a(I616
g2
(g4
S' \x02'
tRp1066
tp1067
a(I617
g2
(g4
S'\xd6\x01'
tRp1068
tp1069
a(I618
g2
(g4
S'\xca\x01'
tRp1070
tp1071
a(I619
g2
(g4
S'\xab\x01'
tRp1072
tp1073
a(I620
g2
(g4
S'\xa6\x01'
tRp1074
tp1075
a(I621
g2
(g4
S'D\x02'
tRp1076
tp1077
a(I622
g2
(g4
S'L\x02'
tRp1078
tp1079
a(I623
g2
(g4
S'\x1f\x02'
tRp1080
tp1081
a(I624
g2
(g4
S'\xee\x01'
tRp1082
tp1083
a(I625
g2
(g4
S'\xf5\x01'
tRp1084
tp1085
a(I626
g2
(g4
S'\xa0\x01'
tRp1086
tp1087
a(I627
g2
(g4
S'Q\x01'
tRp1088
tp1089
a(I628
g2
(g4
S'E\x02'
tRp1090
tp1091
a(I629
g2
(g4
S'\r\x02'
tRp1092
tp1093
a(I630
g2
(g4
S'\xc3\x01'
tRp1094
tp1095
a(I631
g2
(g4
S'o\x01'
tRp1096
tp1097
a(I632
g2
(g4
S'\x86\x01'
tRp1098
tp1099
a(I633
g2
(g4
S'@\x01'
tRp1100
tp1101
a(I634
g2
(g4
S'A\x01'
tRp1102
tp1103
a(I635
g2
(g4
S'=\x02'
tRp1104
tp1105
a(I636
g2
(g4
S'\x0c\x02'
tRp1106
tp1107
a(I637
g2
(g4
S'$\x02'
tRp1108
tp1109
a(I638
g2
(g4
S'\xe1\x01'
tRp1110
tp1111
a(I639
g2
(g4
S'\xe2\x01'
tRp1112
tp1113
a(I640
g2
(g4
S'\xc0\x01'
tRp1114
tp1115
a(I641
g2
(g4
S'\x9f\x01'
tRp1116
tp1117
a(I642
g2
(g4
S'\x85\x01'
tRp1118
tp1119
a(I643
g2
(g4
S'}\x01'
tRp1120
tp1121
a(I644
g2
(g4
S'\x17\x02'
tRp1122
tp1123
a(I645
g2
(g4
S'\xfc\x01'
tRp1124
tp1125
a(I646
g2
(g4
S'\x0e\x02'
tRp1126
tp1127
a(I647
g2
(g4
S'\x18\x02'
tRp1128
tp1129
a(I648
g2
(g4
S'\xb0\x01'
tRp1130
tp1131
a(I649
g2
(g4
S'~\x01'
tRp1132
tp1133
a(I650
g2
(g4
S'c\x01'
tRp1134
tp1135
a(I651
g2
(g4
S'`\x02'
tRp1136
tp1137
a(I652
g2
(g4
S'I\x02'
tRp1138
tp1139
a(I653
g2
(g4
S'+\x02'
tRp1140
tp1141
a(I654
g2
(g4
S'\x0f\x02'
tRp1142
tp1143
a(I655
g2
(g4
S'\xf6\x01'
tRp1144
tp1145
a(I656
g2
(g4
S'\xce\x01'
tRp1146
tp1147
a(I657
g2
(g4
S'\x87\x01'
tRp1148
tp1149
a(I658
g2
(g4
S'l\x02'
tRp1150
tp1151
a(I659
g2
(g4
S'\xfd\x01'
tRp1152
tp1153
a(I660
g2
(g4
S'\x05\x02'
tRp1154
tp1155
a(I661
g2
(g4
S'\xfe\x01'
tRp1156
tp1157
a(I662
g2
(g4
S'\xa5\x01'
tRp1158
tp1159
a(I663
g2
(g4
S'n\x02'
tRp1160
tp1161
a(I664
g2
(g4
S'9\x02'
tRp1162
tp1163
a(I665
g2
(g4
S',\x02'
tRp1164
tp1165
a(I666
g2
(g4
S'4\x02'
tRp1166
tp1167
a(I667
g2
(g4
S'\xda\x01'
tRp1168
tp1169
a(I668
g2
(g4
S'\xf7\x01'
tRp1170
tp1171
a(I669
g2
(g4
S'\xc2\x01'
tRp1172
tp1173
a(I670
g2
(g4
S'\xc4\x01'
tRp1174
tp1175
a(I671
g2
(g4
S'\x97\x01'
tRp1176
tp1177
a(I672
g2
(g4
S'\x98\x01'
tRp1178
tp1179
a(I673
g2
(g4
S'm\x02'
tRp1180
tp1181
a(I674
g2
(g4
S'a\x02'
tRp1182
tp1183
a(I675
g2
(g4
S'F\x02'
tRp1184
tp1185
a(I676
g2
(g4
S'>\x02'
tRp1186
tp1187
a(I677
g2
(g4
S'\xdd\x01'
tRp1188
tp1189
a(I678
g2
(g4
S'_\x02'
tRp1190
tp1191
a(I679
g2
(g4
S'X\x02'
tRp1192
tp1193
a(I680
g2
(g4
S'M\x02'
tRp1194
tp1195
a(I681
g2
(g4
S'Z\x02'
tRp1196
tp1197
a(I682
g2
(g4
S'/\x02'
tRp1198
tp1199
a(I683
g2
(g4
S'\xdc\x01'
tRp1200
tp1201
a(I684
g2
(g4
S'\xcb\x01'
tRp1202
tp1203
a(I685
g2
(g4
S'\xa1\x01'
tRp1204
tp1205
a(I686
g2
(g4
S'\x80\x02'
tRp1206
tp1207
a(I687
g2
(g4
S'\x8f\x02'
tRp1208
tp1209
a(I688
g2
(g4
S'q\x02'
tRp1210
tp1211
a(I689
g2
(g4
S':\x02'
tRp1212
tp1213
a(I690
g2
(g4
S'0\x02'
tRp1214
tp1215
a(I691
g2
(g4
S'\x19\x02'
tRp1216
tp1217
a(I692
g2
(g4
S'\x06\x02'
tRp1218
tp1219
a(I693
g2
(g4
S'\x00\x02'
tRp1220
tp1221
a(I694
g2
(g4
S'\xe3\x01'
tRp1222
tp1223
a(I695
g2
(g4
S'\xb6\x01'
tRp1224
tp1225
a(I696
g2
(g4
S'\x99\x01'
tRp1226
tp1227
a(I697
g1100
tp1228
a(I698
g2
(g4
S'N\x02'
tRp1229
tp1230
a(I699
g2
(g4
S'"\x02'
tRp1231
tp1232
a(I700
g2
(g4
S'\xf0\x01'
tRp1233
tp1234
a(I701
g2
(g4
S'\xcf\x01'
tRp1235
tp1236
a(I702
g2
(g4
S'\xc5\x01'
tRp1237
tp1238
a(I703
g2
(g4
S'\x83\x02'
tRp1239
tp1240
a(I704
g2
(g4
S'Q\x02'
tRp1241
tp1242
a(I705
g2
(g4
S'e\x02'
tRp1243
tp1244
a(I706
g2
(g4
S'\x1a\x02'
tRp1245
tp1246
a(I707
g2
(g4
S';\x02'
tRp1247
tp1248
a(I708
g2
(g4
S'\xff\x01'
tRp1249
tp1250
a(I709
g2
(g4
S'\xef\x01'
tRp1251
tp1252
a(I710
g2
(g4
S'\xf4\x01'
tRp1253
tp1254
a(I711
g2
(g4
S'\x01\x02'
tRp1255
tp1256
a(I712
g2
(g4
S'\xcc\x01'
tRp1257
tp1258
a(I713
g2
(g4
S'\xe4\x01'
tRp1259
tp1260
a(I714
g2
(g4
S'\xd7\x01'
tRp1261
tp1262
a(I715
g2
(g4
S'\xb9\x01'
tRp1263
tp1264
a(I716
g2
(g4
S'\x84\x02'
tRp1265
tp1266
a(I717
g2
(g4
S'u\x02'
tRp1267
tp1268
a(I718
g2
(g4
S'R\x02'
tRp1269
tp1270
a(I719
g2
(g4
S'b\x02'
tRp1271
tp1272
a(I720
g2
(g4
S'5\x02'
tRp1273
tp1274
a(I721
g2
(g4
S'6\x02'
tRp1275
tp1276
a(I722
g2
(g4
S'\xa7\x01'
tRp1277
tp1278
a(I723
g2
(g4
S'\x9d\x02'
tRp1279
tp1280
a(I724
g2
(g4
S'f\x02'
tRp1281
tp1282
a(I725
g2
(g4
S'?\x02'
tRp1283
tp1284
a(I726
g2
(g4
S'<\x02'
tRp1285
tp1286
a(I727
g2
(g4
S'T\x02'
tRp1287
tp1288
a(I728
g2
(g4
S'@\x02'
tRp1289
tp1290
a(I729
g2
(g4
S'!\x02'
tRp1291
tp1292
a(I730
g1249
tp1293
a(I731
g2
(g4
S'\x1c\x02'
tRp1294
tp1295
a(I732
g2
(g4
S'\xf8\x01'
tRp1296
tp1297
a(I733
g2
(g4
S'\xd0\x01'
tRp1298
tp1299
a(I734
g2
(g4
S'\xba\x01'
tRp1300
tp1301
a(I735
g2
(g4
S'\xac\x02'
tRp1302
tp1303
a(I736
g2
(g4
S'\xa2\x02'
tRp1304
tp1305
a(I737
g2
(g4
S'\x99\x02'
tRp1306
tp1307
a(I738
g2
(g4
S'}\x02'
tRp1308
tp1309
a(I739
g2
(g4
S'v\x02'
tRp1310
tp1311
a(I740
g2
(g4
S'\x1b\x02'
tRp1312
tp1313
a(I741
g2
(g4
S'-\x02'
tRp1314
tp1315
a(I742
g2
(g4
S'\xd1\x01'
tRp1316
tp1317
a(I743
g2
(g4
S'\xb1\x01'
tRp1318
tp1319
a(I744
g2
(g4
S'[\x02'
tRp1320
tp1321
a(I745
g2
(g4
S'\xe5\x01'
tRp1322
tp1323
a(I746
g2
(g4
S'\xc1\x01'
tRp1324
tp1325
a(I747
g2
(g4
S'\x98\x02'
tRp1326
tp1327
a(I748
g2
(g4
S'\x85\x02'
tRp1328
tp1329
a(I749
g2
(g4
S'\x92\x02'
tRp1330
tp1331
a(I750
g2
(g4
S'\\\x02'
tRp1332
tp1333
a(I751
g2
(g4
S'%\x02'
tRp1334
tp1335
a(I752
g2
(g4
S'\xf1\x01'
tRp1336
tp1337
a(I753
g2
(g4
S'\x86\x02'
tRp1338
tp1339
a(I754
g2
(g4
S'~\x02'
tRp1340
tp1341
a(I755
g2
(g4
S'\x81\x02'
tRp1342
tp1343
a(I756
g2
(g4
S'Y\x02'
tRp1344
tp1345
a(I757
g1261
tp1346
a(I758
g2
(g4
S'\x02\x02'
tRp1347
tp1348
a(I759
g1306
tp1349
a(I760
g2
(g4
S'\x9a\x02'
tRp1350
tp1351
a(I761
g2
(g4
S'S\x02'
tRp1352
tp1353
a(I762
g2
(g4
S'o\x02'
tRp1354
tp1355
a(I763
g2
(g4
S']\x02'
tRp1356
tp1357
a(I764
g2
(g4
S'&\x02'
tRp1358
tp1359
a(I765
g2
(g4
S'G\x02'
tRp1360
tp1361
a(I766
g2
(g4
S'2\x02'
tRp1362
tp1363
a(I767
g2
(g4
S'\x10\x02'
tRp1364
tp1365
a(I768
g2
(g4
S'\xa3\x02'
tRp1366
tp1367
a(I769
g2
(g4
S'\x93\x02'
tRp1368
tp1369
a(I770
g2
(g4
S'\x88\x02'
tRp1370
tp1371
a(I771
g2
(g4
S'U\x02'
tRp1372
tp1373
a(I772
g2
(g4
S'7\x02'
tRp1374
tp1375
a(I773
g2
(g4
S'\xa5\x02'
tRp1376
tp1377
a(I774
g2
(g4
S'\x87\x02'
tRp1378
tp1379
a(I775
g2
(g4
S'#\x02'
tRp1380
tp1381
a(I776
g2
(g4
S'\xb9\x02'
tRp1382
tp1383
a(I777
g2
(g4
S'\xad\x02'
tRp1384
tp1385
a(I778
g2
(g4
S'\x90\x02'
tRp1386
tp1387
a(I779
g2
(g4
S'1\x02'
tRp1388
tp1389
a(I780
g2
(g4
S"'\x02"
tRp1390
tp1391
a(I781
g2
(g4
S'\x08\x02'
tRp1392
tp1393
a(I782
g2
(g4
S'\xbd\x02'
tRp1394
tp1395
a(I783
g2
(g4
S'\xa4\x02'
tRp1396
tp1397
a(I784
g2
(g4
S'\x9e\x02'
tRp1398
tp1399
a(I785
g2
(g4
S'\x9b\x02'
tRp1400
tp1401
a(I786
g2
(g4
S'\x07\x02'
tRp1402
tp1403
a(I787
g2
(g4
S'\x1d\x02'
tRp1404
tp1405
a(I788
g2
(g4
S'r\x02'
tRp1406
tp1407
a(I789
g1406
tp1408
a(I790
g2
(g4
S'A\x02'
tRp1409
tp1410
a(I791
g2
(g4
S'\xf9\x01'
tRp1411
tp1412
a(I792
g2
(g4
S'\x9f\x02'
tRp1413
tp1414
a(I793
g2
(g4
S'\x89\x02'
tRp1415
tp1416
a(I794
g2
(g4
S'\x8a\x02'
tRp1417
tp1418
a(I795
g2
(g4
S'^\x02'
tRp1419
tp1420
a(I796
g2
(g4
S'g\x02'
tRp1421
tp1422
a(I797
g2
(g4
S'p\x02'
tRp1423
tp1424
a(I798
g2
(g4
S'(\x02'
tRp1425
tp1426
a(I799
g2
(g4
S'\xae\x02'
tRp1427
tp1428
a(I800
g2
(g4
S'\x94\x02'
tRp1429
tp1430
a(I801
g2
(g4
S'\xa6\x02'
tRp1431
tp1432
a(I802
g2
(g4
S'H\x02'
tRp1433
tp1434
a(I803
g2
(g4
S'\x1e\x02'
tRp1435
tp1436
a(I804
g2
(g4
S'\xc2\x02'
tRp1437
tp1438
a(I805
g2
(g4
S'w\x02'
tRp1439
tp1440
a(I806
g2
(g4
S'c\x02'
tRp1441
tp1442
a(I807
g2
(g4
S'J\x02'
tRp1443
tp1444
a(I808
g2
(g4
S'\xc6\x02'
tRp1445
tp1446
a(I809
g2
(g4
S'\xbc\x02'
tRp1447
tp1448
a(I810
g2
(g4
S'\xc3\x02'
tRp1449
tp1450
a(I811
g2
(g4
S'\xb4\x02'
tRp1451
tp1452
a(I812
g2
(g4
S'\xaf\x02'
tRp1453
tp1454
a(I813
g2
(g4
S'{\x02'
tRp1455
tp1456
a(I814
g2
(g4
S'\x91\x02'
tRp1457
tp1458
a(I815
g2
(g4
S'.\x02'
tRp1459
tp1460
a(I816
g2
(g4
S'3\x02'
tRp1461
tp1462
a(I817
g2
(g4
S'\xd1\x02'
tRp1463
tp1464
a(I818
g2
(g4
S'\xd0\x02'
tRp1465
tp1466
a(I819
g2
(g4
S'\xb0\x02'
tRp1467
tp1468
a(I820
g2
(g4
S'\xb1\x02'
tRp1469
tp1470
a(I821
g2
(g4
S'\x82\x02'
tRp1471
tp1472
a(I822
g2
(g4
S'V\x02'
tRp1473
tp1474
a(I823
g2
(g4
S'O\x02'
tRp1475
tp1476
a(I824
g1433
tp1477
a(I825
g2
(g4
S'\xba\x02'
tRp1478
tp1479
a(I826
g2
(g4
S'\xa0\x02'
tRp1480
tp1481
a(I827
g2
(g4
S'x\x02'
tRp1482
tp1483
a(I828
g2
(g4
S'\xa7\x02'
tRp1484
tp1485
a(I829
g2
(g4
S'\xa8\x02'
tRp1486
tp1487
a(I830
g2
(g4
S't\x02'
tRp1488
tp1489
a(I831
g2
(g4
S'W\x02'
tRp1490
tp1491
a(I832
g2
(g4
S's\x02'
tRp1492
tp1493
a(I833
g2
(g4
S'\x96\x02'
tRp1494
tp1495
a(I834
g2
(g4
S'h\x02'
tRp1496
tp1497
a(I835
g2
(g4
S'\xd7\x02'
tRp1498
tp1499
a(I836
g2
(g4
S'\xcc\x02'
tRp1500
tp1501
a(I837
g2
(g4
S'\x7f\x02'
tRp1502
tp1503
a(I838
g2
(g4
S'\xa9\x02'
tRp1504
tp1505
a(I839
g2
(g4
S'\xaa\x02'
tRp1506
tp1507
a(I840
g2
(g4
S'\xbb\x02'
tRp1508
tp1509
a(I841
g2
(g4
S'\xb5\x02'
tRp1510
tp1511
a(I842
g2
(g4
S'\x95\x02'
tRp1512
tp1513
a(I843
g2
(g4
S'|\x02'
tRp1514
tp1515
a(I844
g2
(g4
S'd\x02'
tRp1516
tp1517
a(I845
g2
(g4
S'j\x02'
tRp1518
tp1519
a(I846
g2
(g4
S'\xc9\x02'
tRp1520
tp1521
a(I847
g2
(g4
S'\xb7\x02'
tRp1522
tp1523
a(I848
g2
(g4
S'y\x02'
tRp1524
tp1525
a(I849
g2
(g4
S'\x8c\x02'
tRp1526
tp1527
a(I850
g2
(g4
S'\xe3\x02'
tRp1528
tp1529
a(I851
g2
(g4
S'\x9c\x02'
tRp1530
tp1531
a(I852
g2
(g4
S'k\x02'
tRp1532
tp1533
a(I853
g2
(g4
S'\xda\x02'
tRp1534
tp1535
a(I854
g2
(g4
S'\xdd\x02'
tRp1536
tp1537
a(I855
g2
(g4
S'\xd5\x02'
tRp1538
tp1539
a(I856
g2
(g4
S'\xc4\x02'
tRp1540
tp1541
a(I857
g2
(g4
S'\xb2\x02'
tRp1542
tp1543
a(I858
g2
(g4
S'\xab\x02'
tRp1544
tp1545
a(I859
g2
(g4
S'i\x02'
tRp1546
tp1547
a(I860
g2
(g4
S'\xe4\x02'
tRp1548
tp1549
a(I861
g2
(g4
S'\xcd\x02'
tRp1550
tp1551
a(I862
g2
(g4
S'\x8b\x02'
tRp1552
tp1553
a(I863
g2
(g4
S'\x97\x02'
tRp1554
tp1555
a(I864
g2
(g4
S'\xe5\x02'
tRp1556
tp1557
a(I865
g2
(g4
S'z\x02'
tRp1558
tp1559
a(I866
g2
(g4
S'\xe6\x02'
tRp1560
tp1561
a(I867
g2
(g4
S'\xbe\x02'
tRp1562
tp1563
a(I868
g2
(g4
S'\x8d\x02'
tRp1564
tp1565
a(I869
g2
(g4
S'\x8e\x02'
tRp1566
tp1567
a(I870
g2
(g4
S'\xee\x02'
tRp1568
tp1569
a(I871
g2
(g4
S'\xdb\x02'
tRp1570
tp1571
a(I872
g2
(g4
S'\xde\x02'
tRp1572
tp1573
a(I873
g2
(g4
S'\xce\x02'
tRp1574
tp1575
a(I874
g2
(g4
S'\xcf\x02'
tRp1576
tp1577
a(I875
g2
(g4
S'\xec\x02'
tRp1578
tp1579
a(I876
g2
(g4
S'\xe7\x02'
tRp1580
tp1581
a(I877
g2
(g4
S'\xbf\x02'
tRp1582
tp1583
a(I878
g2
(g4
S'\xf5\x02'
tRp1584
tp1585
a(I879
g2
(g4
S'\xa1\x02'
tRp1586
tp1587
a(I880
g2
(g4
S'\xed\x02'
tRp1588
tp1589
a(I881
g2
(g4
S'\xe8\x02'
tRp1590
tp1591
a(I882
g2
(g4
S'\xdf\x02'
tRp1592
tp1593
a(I883
g2
(g4
S'\xd8\x02'
tRp1594
tp1595
a(I884
g2
(g4
S'\xb6\x02'
tRp1596
tp1597
a(I885
g2
(g4
S'\xef\x02'
tRp1598
tp1599
a(I886
g2
(g4
S'\xf0\x02'
tRp1600
tp1601
a(I887
g2
(g4
S'\xd2\x02'
tRp1602
tp1603
a(I888
g2
(g4
S'\xc5\x02'
tRp1604
tp1605
a(I889
g2
(g4
S'\xb3\x02'
tRp1606
tp1607
a(I890
g2
(g4
S'\xca\x02'
tRp1608
tp1609
a(I891
g2
(g4
S'\xd9\x02'
tRp1610
tp1611
a(I892
g2
(g4
S'\xc7\x02'
tRp1612
tp1613
a(I893
g2
(g4
S'\xc8\x02'
tRp1614
tp1615
a(I894
g2
(g4
S'\xf3\x02'
tRp1616
tp1617
a(I895
g2
(g4
S'\xb8\x02'
tRp1618
tp1619
a(I896
g2
(g4
S'\xf2\x02'
tRp1620
tp1621
a(I897
g2
(g4
S'\xc0\x02'
tRp1622
tp1623
a(I898
g2
(g4
S'\xf1\x02'
tRp1624
tp1625
a(I899
g2
(g4
S'\xe9\x02'
tRp1626
tp1627
a(I900
g2
(g4
S'\xea\x02'
tRp1628
tp1629
a(I901
g2
(g4
S'\xd6\x02'
tRp1630
tp1631
a(I902
g2
(g4
S'\xc1\x02'
tRp1632
tp1633
a(I903
g1624
tp1634
a(I904
g2
(g4
S'\xcb\x02'
tRp1635
tp1636
a(I905
g2
(g4
S'\xeb\x02'
tRp1637
tp1638
a(I906
g2
(g4
S'\xdc\x02'
tRp1639
tp1640
a(I907
g2
(g4
S'\xd3\x02'
tRp1641
tp1642
a(I908
g2
(g4
S'\xf4\x02'
tRp1643
tp1644
a(I909
g2
(g4
S'\xe0\x02'
tRp1645
tp1646
a(I910
g2
(g4
S'\xd4\x02'
tRp1647
tp1648
a(I911
g2
(g4
S'\xe1\x02'
tRp1649
tp1650
a(I912
g2
(g4
S'\xe2\x02'
tRp1651
tp1652
a(lp1653
g2
(g3
(S'f4'
I0
I1
tRp1654
(I3
S'<'
NNNI-1
I-1
I0
tbS'\x98\x85g?'
tRp1655
ag2
(g1654
S'\x80%e?'
tRp1656
ag2
(g1654
S'\x11|o?'
tRp1657
ag2
(g1654
S'7%f?'
tRp1658
ag2
(g1654
S'\xa7\xe0e?'
tRp1659
ag2
(g1654
S'2\x94f?'
tRp1660
ag2
(g1654
S'\x84vZ?'
tRp1661
ag2
(g1654
S')(s?'
tRp1662
ag2
(g1654
S'\xf1\xacp?'
tRp1663
ag2
(g1654
S'\x8b\xeeq?'
tRp1664
ag2
(g1654
S'\xe1\x92n?'
tRp1665
ag2
(g1654
S'|\xc5W?'
tRp1666
ag2
(g1654
S'\x9d\x8ek?'
tRp1667
ag2
(g1654
S'ec\\?'
tRp1668
ag2
(g1654
S'\x86*M>'
tRp1669
ag2
(g1654
S'\xec\x1ct?'
tRp1670
ag2
(g1654
S'\x9d_[?'
tRp1671
ag2
(g1654
S'!<t?'
tRp1672
ag2
(g1654
S'\xea\x17t?'
tRp1673
ag2
(g1654
S'k\xecq?'
tRp1674
ag2
(g1654
S'<\x07u?'
tRp1675
ag2
(g1654
S'R\xe3Y?'
tRp1676
ag2
(g1654
S'\xb1\xc9]?'
tRp1677
ag2
(g1654
S'\xd3\x87e?'
tRp1678
ag2
(g1654
S'7\x15N?'
tRp1679
ag2
(g1654
S'6\xeee?'
tRp1680
ag2
(g1654
S'H\xa9p?'
tRp1681
ag2
(g1654
S'\x9dK`?'
tRp1682
ag2
(g1654
S'\x15\nq?'
tRp1683
ag2
(g1654
S'\xad\xe6c?'
tRp1684
ag2
(g1654
S'\xd0\x0c@?'
tRp1685
ag2
(g1654
S'8\xa7=?'
tRp1686
ag2
(g1654
S'/\x924;'
tRp1687
ag2
(g1654
S'\x08\xbd\x1c?'
tRp1688
ag2
(g1654
S'\xe4\xf7\x18?'
tRp1689
ag2
(g1654
S'{\xb6\x17?'
tRp1690
ag2
(g1654
S'\x1d\xeeW?'
tRp1691
ag2
(g1654
S'^\xedp?'
tRp1692
ag2
(g1654
S'\x8f\xf4<:'
tRp1693
ag2
(g1654
S'rq\xf3;'
tRp1694
ag2
(g1654
S'\x05\xd8O?'
tRp1695
ag2
(g1654
S'\x85e\xaa='
tRp1696
ag2
(g1654
S'\xe9Hb?'
tRp1697
ag2
(g1654
S'""n?'
tRp1698
ag2
(g1654
S'\x0f\x98G='
tRp1699
ag2
(g1654
S'\xe3\xe4\xfb;'
tRp1700
ag2
(g1654
S'\xe0u\x19?'
tRp1701
ag2
(g1654
S'Dr\xbd>'
tRp1702
ag2
(g1654
S'\x9d\xc9\x06?'
tRp1703
ag2
(g1654
S'\xbbu\x0e;'
tRp1704
ag2
(g1654
S'\x86\x8dQ?'
tRp1705
ag2
(g1654
S'.\x17\x85:'
tRp1706
ag2
(g1654
S'\xa8\rw='
tRp1707
ag2
(g1654
S'_\xd5\xd5<'
tRp1708
ag2
(g1654
S'B\r/?'
tRp1709
ag2
(g1654
S'\xc8\x91 <'
tRp1710
ag2
(g1654
S'\xc1\x14\xc9>'
tRp1711
ag2
(g1654
S'\x11I;?'
tRp1712
ag2
(g1654
S'\xd4\x83\x81>'
tRp1713
ag2
(g1654
S'\xfenO9'
tRp1714
ag2
(g1654
S'\xcb\xc5\x18?'
tRp1715
ag2
(g1654
S'\xd8\xe1M<'
tRp1716
ag2
(g1654
S"'\x19\xb7<"
tRp1717
ag2
(g1654
S'p%\x948'
tRp1718
ag2
(g1654
S'\xef\xb9#:'
tRp1719
ag2
(g1654
S'\xf4\xb9\x06?'
tRp1720
ag2
(g1654
S'm2\xed8'
tRp1721
ag2
(g1654
S"'\xcb\xa8>"
tRp1722
ag2
(g1654
S')\xd9\xa28'
tRp1723
ag2
(g1654
S';\xb9\xf3>'
tRp1724
ag2
(g1654
S'PS\x07?'
tRp1725
ag2
(g1654
S'\x9c\xa2\x0c<'
tRp1726
ag2
(g1654
S' \xb4S9'
tRp1727
ag2
(g1654
S')"I9'
tRp1728
ag2
(g1654
S'\xb4!d<'
tRp1729
ag2
(g1654
S'\x9d\xa5q;'
tRp1730
ag2
(g1654
S',P\x7f9'
tRp1731
ag2
(g1654
S'\x9a\xe1\x879'
tRp1732
ag2
(g1654
S'\x80\xc5\x829'
tRp1733
ag2
(g1654
S'0E\n9'
tRp1734
ag2
(g1654
S'\xbe\x9d>:'
tRp1735
ag2
(g1654
S'i\xb8-:'
tRp1736
ag2
(g1654
S'^^\xa58'
tRp1737
ag2
(g1654
S'\xca\xa6\x819'
tRp1738
ag2
(g1654
S' \xe4\x8a9'
tRp1739
ag2
(g1654
S'V\x939<'
tRp1740
ag2
(g1654
S'ZQ\xf58'
tRp1741
ag2
(g1654
S'\xcb\x03\x04:'
tRp1742
ag2
(g1654
S'\xec\xd9\xbb9'
tRp1743
ag2
(g1654
S'\x82\xc1\x08:'
tRp1744
ag2
(g1654
S'\xbf\x9bj<'
tRp1745
ag2
(g1654
S'L\xd0X9'
tRp1746
ag2
(g1654
S'\xb0\x10\x999'
tRp1747
ag2
(g1654
S'\xacqT:'
tRp1748
ag2
(g1654
S'$_`:'
tRp1749
ag2
(g1654
S't\xe9\xff9'
tRp1750
ag2
(g1654
S'0\xd4\xca9'
tRp1751
ag2
(g1654
S'\xf2P\x899'
tRp1752
ag2
(g1654
S'\x08r%:'
tRp1753
ag2
(g1654
S'\xc6M\xe49'
tRp1754
ag2
(g1654
S'ij\x929'
tRp1755
ag2
(g1654
S'\xf2X\xb39'
tRp1756
ag2
(g1654
S'\xba\xa4/:'
tRp1757
ag2
(g1654
S'~\x98?:'
tRp1758
ag2
(g1654
S'\n1\x1c9'
tRp1759
ag2
(g1654
S'\xf5/\xb49'
tRp1760
ag2
(g1654
S'\x0co08'
tRp1761
ag2
(g1654
S'\xb5\xe7\x999'
tRp1762
ag2
(g1654
S'\nFl9'
tRp1763
ag2
(g1654
S'a\xdc\x08:'
tRp1764
ag2
(g1654
S'\xca\x9f\xe29'
tRp1765
ag2
(g1654
S'J\xd8\xc49'
tRp1766
ag2
(g1654
S'4\xc8A:'
tRp1767
ag2
(g1654
S'\xac\x9c#9'
tRp1768
ag2
(g1654
S'\xb6A\xea8'
tRp1769
ag2
(g1654
S'eR=:'
tRp1770
ag2
(g1654
S'\xd6V\xf79'
tRp1771
ag2
(g1654
S'\x82679'
tRp1772
ag2
(g1654
S'\x82\xf0\xa09'
tRp1773
ag2
(g1654
S'\x1dL\xd39'
tRp1774
ag2
(g1654
S'\xb7T\xda9'
tRp1775
ag2
(g1654
S'\xd4}\x1b9'
tRp1776
ag2
(g1654
S'R\x9a\x1f:'
tRp1777
ag2
(g1654
S'L\xb4\x868'
tRp1778
ag2
(g1654
S'\xd5\xf8\xbf8'
tRp1779
ag2
(g1654
S'\xc2)\x01:'
tRp1780
ag2
(g1654
S'h\xbb$9'
tRp1781
ag2
(g1654
S'x\xac\xa89'
tRp1782
ag2
(g1654
S'\xdc\x06\xd69'
tRp1783
ag2
(g1654
S'\x9b\x9fI9'
tRp1784
ag2
(g1654
S'\xfb\xa6(9'
tRp1785
ag2
(g1654
S'N\x0e\x8f9'
tRp1786
ag2
(g1654
S'x\x8b\x9d9'
tRp1787
ag2
(g1654
S'\xed\xb0\xb88'
tRp1788
ag2
(g1654
S'\xb2)69'
tRp1789
ag2
(g1654
S'4\xc3-9'
tRp1790
ag2
(g1654
S'\xc1\xad\xff8'
tRp1791
ag2
(g1654
S'L\xbf\xb49'
tRp1792
ag2
(g1654
S'2p\x8e>'
tRp1793
ag2
(g1654
S'\t\xe3H>'
tRp1794
ag2
(g1654
S'\x8c\x88H:'
tRp1795
ag2
(g1654
S'\xe5.c?'
tRp1796
ag2
(g1654
S'd\x80p?'
tRp1797
ag2
(g1654
S'6\xf2\xd5>'
tRp1798
ag2
(g1654
S'\xc0\x13\xc9>'
tRp1799
ag2
(g1654
S'V\xe5\x08:'
tRp1800
ag2
(g1654
S'\x9db\xf39'
tRp1801
ag2
(g1654
S';\xb1\x8c;'
tRp1802
ag2
(g1654
S';\xa3\x19:'
tRp1803
ag2
(g1654
S'\x87Y+='
tRp1804
ag2
(g1654
S'GMk:'
tRp1805
ag2
(g1654
S'\x1a \x969'
tRp1806
ag2
(g1654
S'\x16-e?'
tRp1807
ag2
(g1654
S'+\xa6u?'
tRp1808
ag2
(g1654
S'\xbd_u?'
tRp1809
ag2
(g1654
S'\xbd?n?'
tRp1810
ag2
(g1654
S'O\x9e\xb1>'
tRp1811
ag2
(g1654
S'm.\x1d?'
tRp1812
ag2
(g1654
S'\xf8\x17\xf0>'
tRp1813
ag2
(g1654
S'\xdc\x82\x86>'
tRp1814
ag2
(g1654
S'\\\x9b\xd59'
tRp1815
ag2
(g1654
S'\xb8\x19l?'
tRp1816
ag2
(g1654
S'\xb8\xcc\x85>'
tRp1817
ag2
(g1654
S'c\x1e\xeb>'
tRp1818
ag2
(g1654
S'Ml\x81<'
tRp1819
ag2
(g1654
S'\xb8H\x7f='
tRp1820
ag2
(g1654
S'\x1c\\\x19='
tRp1821
ag2
(g1654
S'S\xabv?'
tRp1822
ag2
(g1654
S'\x80ct?'
tRp1823
ag2
(g1654
S'.\xe7m?'
tRp1824
ag2
(g1654
S';\xb7j?'
tRp1825
ag2
(g1654
S'\xae=[?'
tRp1826
ag2
(g1654
S'\xf8\x89P?'
tRp1827
ag2
(g1654
S'\xe7t\x15:'
tRp1828
ag2
(g1654
S"\xe1\xf6':"
tRp1829
ag2
(g1654
S'-\xb3o?'
tRp1830
ag2
(g1654
S'\xd3sc?'
tRp1831
ag2
(g1654
S'\xdaL\x0c?'
tRp1832
ag2
(g1654
S'\x91\x90\x90>'
tRp1833
ag2
(g1654
S'\xd1c\x9c9'
tRp1834
ag2
(g1654
S's\xdd\xf1>'
tRp1835
ag2
(g1654
S'\t\x015='
tRp1836
ag2
(g1654
S'\x9e\xb0N:'
tRp1837
ag2
(g1654
S'\xed\xa0d?'
tRp1838
ag2
(g1654
S'\xbd\xf1q?'
tRp1839
ag2
(g1654
S'\x99\x11p?'
tRp1840
ag2
(g1654
S'(\xae\xad>'
tRp1841
ag2
(g1654
S'1\xef9?'
tRp1842
ag2
(g1654
S'P\r\x9f>'
tRp1843
ag2
(g1654
S'/N+:'
tRp1844
ag2
(g1654
S'~\xedl?'
tRp1845
ag2
(g1654
S'\x9d\x9a)?'
tRp1846
ag2
(g1654
S'+\xe6\xb5>'
tRp1847
ag2
(g1654
S'@BX?'
tRp1848
ag2
(g1654
S'\xcb\xa9\xac9'
tRp1849
ag2
(g1654
S'\xe2\x8f!:'
tRp1850
ag2
(g1654
S'\x91\xf4M:'
tRp1851
ag2
(g1654
S'\xe1\x82m?'
tRp1852
ag2
(g1654
S'\xfb<B?'
tRp1853
ag2
(g1654
S'\x9a\x14??'
tRp1854
ag2
(g1654
S'\xbe)9?'
tRp1855
ag2
(g1654
S'\xda\x8f\xdf:'
tRp1856
ag2
(g1654
S'\xc9\x12\x80:'
tRp1857
ag2
(g1654
S'\x0c\xfb\xb8:'
tRp1858
ag2
(g1654
S'\xdc\xd4i?'
tRp1859
ag2
(g1654
S'3\x11\x8b<'
tRp1860
ag2
(g1654
S'U5\x15?'
tRp1861
ag2
(g1654
S'C\r\x17>'
tRp1862
ag2
(g1654
S'\xf9\x1d\x80:'
tRp1863
ag2
(g1654
S'\xf6\xdbm?'
tRp1864
ag2
(g1654
S'\x01\xaag?'
tRp1865
ag2
(g1654
S'i\xf6Z?'
tRp1866
ag2
(g1654
S'\xb9\xc4#?'
tRp1867
ag2
(g1654
S'\x99\x95\x12?'
tRp1868
ag2
(g1654
S'\xd6\xa1\x1c?'
tRp1869
ag2
(g1654
S'\xcf\x8b@?'
tRp1870
ag2
(g1654
S'I\xd1t<'
tRp1871
ag2
(g1654
S'\xf3k/<'
tRp1872
ag2
(g1654
S'\x92)\xfe9'
tRp1873
ag2
(g1654
S'\x95\x8c\xf79'
tRp1874
ag2
(g1654
S'jsr?'
tRp1875
ag2
(g1654
S'\xe2Yn?'
tRp1876
ag2
(g1654
S'D\xeaa?'
tRp1877
ag2
(g1654
S'5\x93b?'
tRp1878
ag2
(g1654
S'&\x07F?'
tRp1879
ag2
(g1654
S'v+m?'
tRp1880
ag2
(g1654
S'N\x9f\x9f>'
tRp1881
ag2
(g1654
S'\xc4\xf5O;'
tRp1882
ag2
(g1654
S'\x7f\xbdI:'
tRp1883
ag2
(g1654
S'\xedo\xf3;'
tRp1884
ag2
(g1654
S'\x0e\rs?'
tRp1885
ag2
(g1654
S'<c-?'
tRp1886
ag2
(g1654
S'\xeb\xb0\xa6>'
tRp1887
ag2
(g1654
S'C\xe3)='
tRp1888
ag2
(g1654
S'\x1b0~:'
tRp1889
ag2
(g1654
S'\xf6\xf7\x81;'
tRp1890
ag2
(g1654
S'\x7fss:'
tRp1891
ag2
(g1654
S'n\x19\xc89'
tRp1892
ag2
(g1654
S'$\xbcE:'
tRp1893
ag2
(g1654
S'\x9c\xd38:'
tRp1894
ag2
(g1654
S'\xa8I1:'
tRp1895
ag2
(g1654
S'\xc7\xf5+?'
tRp1896
ag2
(g1654
S'\xae\xefj?'
tRp1897
ag2
(g1654
S'\x7f7\x1d?'
tRp1898
ag2
(g1654
S'(\x8dG?'
tRp1899
ag2
(g1654
S'\xd6b\x19?'
tRp1900
ag2
(g1654
S'_^~>'
tRp1901
ag2
(g1654
S'\xe2k;<'
tRp1902
ag2
(g1654
S'\x89\xd5\xe29'
tRp1903
ag2
(g1654
S'\xca\xdfs?'
tRp1904
ag2
(g1654
S'W\xbdr?'
tRp1905
ag2
(g1654
S'\xfc\xf6r?'
tRp1906
ag2
(g1654
S'\xdb\xfel?'
tRp1907
ag2
(g1654
S'kM\x1d?'
tRp1908
ag2
(g1654
S'\x85(\xff>'
tRp1909
ag2
(g1654
S'3hD?'
tRp1910
ag2
(g1654
S'\xa1\xe1\x92>'
tRp1911
ag2
(g1654
S'\x0b\xbb\xc9<'
tRp1912
ag2
(g1654
S'\xa3K\x18<'
tRp1913
ag2
(g1654
S'\xdeZ,:'
tRp1914
ag2
(g1654
S'1is?'
tRp1915
ag2
(g1654
S'\xf4ld?'
tRp1916
ag2
(g1654
S';Gs?'
tRp1917
ag2
(g1654
S'a\xac/?'
tRp1918
ag2
(g1654
S'\xb4\xa2\x16>'
tRp1919
ag2
(g1654
S'\xcb\xf0\xdb9'
tRp1920
ag2
(g1654
S'\n>r?'
tRp1921
ag2
(g1654
S'\xe4\xc1p?'
tRp1922
ag2
(g1654
S'\x8dd.?'
tRp1923
ag2
(g1654
S'\xb4\x070>'
tRp1924
ag2
(g1654
S'\xaa\t\x00='
tRp1925
ag2
(g1654
S'\xd8q7:'
tRp1926
ag2
(g1654
S'\xf8\xcc[<'
tRp1927
ag2
(g1654
S'\x96pf?'
tRp1928
ag2
(g1654
S'\x8d+m?'
tRp1929
ag2
(g1654
S'\xca\xabg?'
tRp1930
ag2
(g1654
S'X\xd6\xd2>'
tRp1931
ag2
(g1654
S'\x80\xc4&?'
tRp1932
ag2
(g1654
S'\x89\xf72:'
tRp1933
ag2
(g1654
S'l\xe4r?'
tRp1934
ag2
(g1654
S'\xf6S$?'
tRp1935
ag2
(g1654
S'\xc2\\r?'
tRp1936
ag2
(g1654
S'Q\xb3l?'
tRp1937
ag2
(g1654
S'\x98\xaes?'
tRp1938
ag2
(g1654
S'b\x9a\xbb<'
tRp1939
ag2
(g1654
S'\xccA+?'
tRp1940
ag2
(g1654
S'9\\\x12:'
tRp1941
ag2
(g1654
S'\xd8\x8a\x8b>'
tRp1942
ag2
(g1654
S'\x9b\x8c=:'
tRp1943
ag2
(g1654
S'\xe9;k?'
tRp1944
ag2
(g1654
S'8$r?'
tRp1945
ag2
(g1654
S'Y\x13\xa3<'
tRp1946
ag2
(g1654
S'#\x12\x9f>'
tRp1947
ag2
(g1654
S'\xf7\x9ah?'
tRp1948
ag2
(g1654
S'#\x87g?'
tRp1949
ag2
(g1654
S'h3r?'
tRp1950
ag2
(g1654
S'\xde\x88q?'
tRp1951
ag2
(g1654
S'\x04{s?'
tRp1952
ag2
(g1654
S'\xb4aE?'
tRp1953
ag2
(g1654
S'P\x83m?'
tRp1954
ag2
(g1654
S'S\x06q?'
tRp1955
ag2
(g1654
S'\x9f\xa6\x07?'
tRp1956
ag2
(g1654
S'\xbc\xa5\x1e?'
tRp1957
ag2
(g1654
S'\xbfZ\x10?'
tRp1958
ag2
(g1654
S'|\x81\xb1>'
tRp1959
ag2
(g1654
S'4\x1d\xe9>'
tRp1960
ag2
(g1654
S'?F\x00<'
tRp1961
ag2
(g1654
S'{#g?'
tRp1962
ag2
(g1654
S'\xd6\xb0G?'
tRp1963
ag2
(g1654
S'\xc6\xa7r?'
tRp1964
ag2
(g1654
S'\x14\x10c?'
tRp1965
ag2
(g1654
S'4\xb0%?'
tRp1966
ag2
(g1654
S'v\xf9r?'
tRp1967
ag2
(g1654
S'{\xd6\x1e?'
tRp1968
ag2
(g1654
S'\xf3\x8dn?'
tRp1969
ag2
(g1654
S'rn\x17?'
tRp1970
ag2
(g1654
S'{:!:'
tRp1971
ag2
(g1654
S'C\x9dk?'
tRp1972
ag2
(g1654
S'=\x06o?'
tRp1973
ag2
(g1654
S'(\xe2c?'
tRp1974
ag2
(g1654
S'\xf7\xd9k?'
tRp1975
ag2
(g1654
S'\x7f,1?'
tRp1976
ag2
(g1654
S'\xd5@s?'
tRp1977
ag2
(g1654
S'd\x97m?'
tRp1978
ag2
(g1654
S'z\x9fb?'
tRp1979
ag2
(g1654
S"'\xddS?"
tRp1980
ag2
(g1654
S'\x87\xf0\xd1<'
tRp1981
ag2
(g1654
S'\xe0\x88o?'
tRp1982
ag2
(g1654
S'P\x9dk?'
tRp1983
ag2
(g1654
S'\xdbqq?'
tRp1984
ag2
(g1654
S'\xab\x8fp?'
tRp1985
ag2
(g1654
S'~\x90??'
tRp1986
ag2
(g1654
S'\xdf\x10\n?'
tRp1987
ag2
(g1654
S'R\xeb\xcd>'
tRp1988
ag2
(g1654
S'I\xd8\x9c9'
tRp1989
ag2
(g1654
S'\xc9\x05p?'
tRp1990
ag2
(g1654
S'\xb0\xdci?'
tRp1991
ag2
(g1654
S'\x87\x85K?'
tRp1992
ag2
(g1654
S"\xe9\x94'>"
tRp1993
ag2
(g1654
S'>~t?'
tRp1994
ag2
(g1654
S'\xb9\xa4t?'
tRp1995
ag2
(g1654
S'{\xe4o?'
tRp1996
ag2
(g1654
S'\xa9qs?'
tRp1997
ag2
(g1654
S'\xf6\xcfp?'
tRp1998
ag2
(g1654
S'\xc4\x13p?'
tRp1999
ag2
(g1654
S's\x15o?'
tRp2000
ag2
(g1654
S'\xbb\x02q?'
tRp2001
ag2
(g1654
S'\xb4\xb9o?'
tRp2002
ag2
(g1654
S'Y\xf21?'
tRp2003
ag2
(g1654
S'\x95^\xfd>'
tRp2004
ag2
(g1654
S'\x9b\xa6m?'
tRp2005
ag2
(g1654
S'\xf7\x9cq?'
tRp2006
ag2
(g1654
S'\x01=u?'
tRp2007
ag2
(g1654
S'\xc6Bs?'
tRp2008
ag2
(g1654
S'\xca)r?'
tRp2009
ag2
(g1654
S'\r\x0fe?'
tRp2010
ag2
(g1654
S'L#q?'
tRp2011
ag2
(g1654
S'\x0c\xe3r?'
tRp2012
ag2
(g1654
S'\x05\xd9f?'
tRp2013
ag2
(g1654
S'JSf?'
tRp2014
ag2
(g1654
S'\xff\xa8-?'
tRp2015
ag2
(g1654
S'\xa6\xdc>>'
tRp2016
ag2
(g1654
S'\x18\xfdh?'
tRp2017
ag2
(g1654
S'\x9f\xb6q?'
tRp2018
ag2
(g1654
S'W-\x12?'
tRp2019
ag2
(g1654
S'w1e?'
tRp2020
ag2
(g1654
S'\t\xc0l?'
tRp2021
ag2
(g1654
S'\xfd\xd8M?'
tRp2022
ag2
(g1654
S'\x8e\x83p?'
tRp2023
ag2
(g1654
S'\xd0Im?'
tRp2024
ag2
(g1654
S'>\x16s?'
tRp2025
ag2
(g1654
S'\x16\xb5X?'
tRp2026
ag2
(g1654
S'\x0b\x9fm?'
tRp2027
ag2
(g1654
S'1*j?'
tRp2028
ag2
(g1654
S'~\xc8Z?'
tRp2029
ag2
(g1654
S'v=o?'
tRp2030
ag2
(g1654
S'`\x1fL?'
tRp2031
ag2
(g1654
S'\xf0p\x1b<'
tRp2032
ag2
(g1654
S'S\x18v?'
tRp2033
ag2
(g1654
S';Gr?'
tRp2034
ag2
(g1654
S'\xc0;L?'
tRp2035
ag2
(g1654
S'\\!W?'
tRp2036
ag2
(g1654
S'\x9f\xfa\xf2>'
tRp2037
ag2
(g1654
S'}\x9bd?'
tRp2038
ag2
(g1654
S'9\x98r?'
tRp2039
ag2
(g1654
S'\xb1\xf5\n?'
tRp2040
ag2
(g1654
S'j,\x0c?'
tRp2041
ag2
(g1654
S'\xc3\xb7\x13?'
tRp2042
ag2
(g1654
S'\xc8\rd?'
tRp2043
ag2
(g1654
S'\xfa\xa5o?'
tRp2044
ag2
(g1654
S'=\x16n?'
tRp2045
ag2
(g1654
S'\xb28p?'
tRp2046
ag2
(g1654
S'\xbf\xa7p?'
tRp2047
ag2
(g1654
S'\xb2\xae>?'
tRp2048
ag2
(g1654
S'Zrj?'
tRp2049
ag2
(g1654
S'\xe88l?'
tRp2050
ag2
(g1654
S'\xa5,p?'
tRp2051
ag2
(g1654
S'@\xe7n?'
tRp2052
ag2
(g1654
S'Q\xdbk?'
tRp2053
ag2
(g1654
S'\xc4\xf0\x1a?'
tRp2054
ag2
(g1654
S',\xb2\xfa>'
tRp2055
ag2
(g1654
S'\x7f\x97\xbf<'
tRp2056
ag2
(g1654
S'\x18\xc1o?'
tRp2057
ag2
(g1654
S'\xdb\xcdr?'
tRp2058
ag2
(g1654
S'\xcd\x0cd?'
tRp2059
ag2
(g1654
S'\xc82p?'
tRp2060
ag2
(g1654
S'\x00\x00n>'
tRp2061
ag2
(g1654
S'\xa9\xec\xf1>'
tRp2062
ag2
(g1654
S'\xb3\x06q?'
tRp2063
ag2
(g1654
S' Ud?'
tRp2064
ag2
(g1654
S'\xb3\x8ag?'
tRp2065
ag2
(g1654
S'\x94\x93l?'
tRp2066
ag2
(g1654
S'B\x89\x12?'
tRp2067
ag2
(g1654
S'^\xdbC?'
tRp2068
ag2
(g1654
S'|\x08-?'
tRp2069
ag2
(g1654
S'\x86\xb3n<'
tRp2070
ag2
(g1654
S'q2\xa1>'
tRp2071
ag2
(g1654
S'\xe7\xccr?'
tRp2072
ag2
(g1654
S'\xd8\xe2h?'
tRp2073
ag2
(g1654
S'\xa1\x0fn?'
tRp2074
ag2
(g1654
S'\xcb\x11=?'
tRp2075
ag2
(g1654
S'xsk?'
tRp2076
ag2
(g1654
S'\xf3\xc7s?'
tRp2077
ag2
(g1654
S'F\x89f?'
tRp2078
ag2
(g1654
S'\xc0\x07\x0f<'
tRp2079
ag2
(g1654
S'\xcb7e?'
tRp2080
ag2
(g1654
S'\x9bZ4?'
tRp2081
ag2
(g1654
S'\xa1\x94m?'
tRp2082
ag2
(g1654
S'Y\x06(?'
tRp2083
ag2
(g1654
S"'\x84j?"
tRp2084
ag2
(g1654
S'\xa8so?'
tRp2085
ag2
(g1654
S'3\xe7h?'
tRp2086
ag2
(g1654
S' \x9e\xc1;'
tRp2087
ag2
(g1654
S'*"i?'
tRp2088
ag2
(g1654
S'\x15\xd0^?'
tRp2089
ag2
(g1654
S'\x11\xf7n?'
tRp2090
ag2
(g1654
S'\xf4On?'
tRp2091
ag2
(g1654
S'a\xfds?'
tRp2092
ag2
(g1654
S'\xbc\x92q?'
tRp2093
ag2
(g1654
S'\x1c\xfer?'
tRp2094
ag2
(g1654
S'@b\x1e?'
tRp2095
ag2
(g1654
S',\x7fb?'
tRp2096
ag2
(g1654
S'\xcd\xeaW?'
tRp2097
ag2
(g1654
S'\xf3\xfdo?'
tRp2098
ag2
(g1654
S'\x98\xa3d?'
tRp2099
ag2
(g1654
S'\x0f+b?'
tRp2100
ag2
(g1654
S'\xa3P\x1a?'
tRp2101
ag2
(g1654
S'\x0b\xa8s?'
tRp2102
ag2
(g1654
S'"\x8eo?'
tRp2103
ag2
(g1654
S'Z\x19u?'
tRp2104
ag2
(g1654
S';\x14p?'
tRp2105
ag2
(g1654
S'x\x1da?'
tRp2106
ag2
(g1654
S'r>m?'
tRp2107
ag2
(g1654
S'\r\x90X?'
tRp2108
ag2
(g1654
S'\x8d\xadi?'
tRp2109
ag2
(g1654
S'\xd7Qn?'
tRp2110
ag2
(g1654
S'\xe4L\xd5>'
tRp2111
ag2
(g1654
S'f\x93o?'
tRp2112
ag2
(g1654
S'h\xeep?'
tRp2113
ag2
(g1654
S';D\x1f?'
tRp2114
ag2
(g1654
S'm\xdfs?'
tRp2115
ag2
(g1654
S'\xa01s?'
tRp2116
ag2
(g1654
S'9Oo?'
tRp2117
ag2
(g1654
S'h\x9bg?'
tRp2118
ag2
(g1654
S'\xfbun?'
tRp2119
ag2
(g1654
S'\x1a\xfcr?'
tRp2120
ag2
(g1654
S'&Ar?'
tRp2121
ag2
(g1654
S'\\\x14f?'
tRp2122
ag2
(g1654
S'\xb6Dn?'
tRp2123
ag2
(g1654
S'\xf0\x7fq?'
tRp2124
ag2
(g1654
S'\x1b-p?'
tRp2125
ag2
(g1654
S'\x1eSh?'
tRp2126
ag2
(g1654
S'\xf8_k?'
tRp2127
ag2
(g1654
S'f\xeen?'
tRp2128
ag2
(g1654
S'[\x04s?'
tRp2129
ag2
(g1654
S'e\xf2g?'
tRp2130
ag2
(g1654
S'&\xa9n?'
tRp2131
ag2
(g1654
S'\xa8Fn?'
tRp2132
ag2
(g1654
S'\xc66s?'
tRp2133
ag2
(g1654
S'D\x87q?'
tRp2134
ag2
(g1654
S'\x04Ms?'
tRp2135
ag2
(g1654
S'R\xb0r?'
tRp2136
ag2
(g1654
S'8gp?'
tRp2137
ag2
(g1654
S'!Oq?'
tRp2138
ag2
(g1654
S'\x1d\x1eo?'
tRp2139
ag2
(g1654
S'\x02\xd2d?'
tRp2140
ag2
(g1654
S'x~V?'
tRp2141
ag2
(g1654
S'\xd2\x18h?'
tRp2142
ag2
(g1654
S'\xbb\xcfk?'
tRp2143
ag2
(g1654
S'\xeakt?'
tRp2144
ag2
(g1654
S'\xb1:p?'
tRp2145
ag2
(g1654
S'\xb7\xf8i?'
tRp2146
ag2
(g1654
S'S\x7fp?'
tRp2147
ag2
(g1654
S'/)k?'
tRp2148
ag2
(g1654
S'\xe9\xd5q?'
tRp2149
ag2
(g1654
S'\xc6\xe4q?'
tRp2150
ag2
(g1654
S'\x0c\xba\n?'
tRp2151
ag2
(g1654
S'Has?'
tRp2152
ag2
(g1654
S'\xf7bd?'
tRp2153
ag2
(g1654
S'\x9aN\x16?'
tRp2154
ag2
(g1654
S'\x86\x10u?'
tRp2155
ag2
(g1654
S'\xfe\xdao?'
tRp2156
ag2
(g1654
S'`\xa6j<'
tRp2157
ag2
(g1654
S'\x96\xceq?'
tRp2158
ag2
(g1654
S'\x18*b?'
tRp2159
ag2
(g1654
S'\x11\x18^?'
tRp2160
ag2
(g1654
S'<\xf4d?'
tRp2161
ag2
(g1654
S'2<i?'
tRp2162
ag2
(g1654
S'R\x1cp?'
tRp2163
ag2
(g1654
S'\xe6\x07c?'
tRp2164
ag2
(g1654
S':\x8bp?'
tRp2165
ag2
(g1654
S'\xb7kr?'
tRp2166
ag2
(g1654
S"H\xb2'?"
tRp2167
ag2
(g1654
S'C m?'
tRp2168
ag2
(g1654
S'I[k?'
tRp2169
ag2
(g1654
S'GVt?'
tRp2170
ag2
(g1654
S'\xd0\x18d?'
tRp2171
ag2
(g1654
S'\xf74a?'
tRp2172
ag2
(g1654
S'\x95.o?'
tRp2173
ag2
(g1654
S't\xbbo?'
tRp2174
ag2
(g1654
S'\xbdzr?'
tRp2175
ag2
(g1654
S'\x99~`?'
tRp2176
ag2
(g1654
S'\xe5fc?'
tRp2177
ag2
(g1654
S'\xcc\x87\xcc>'
tRp2178
ag2
(g1654
S'\xf2Ud?'
tRp2179
ag2
(g1654
S'3\xa7r?'
tRp2180
ag2
(g1654
S'\x18\x06s?'
tRp2181
ag2
(g1654
S'\xc8\xa6e?'
tRp2182
ag2
(g1654
S'?\x87e?'
tRp2183
ag2
(g1654
S'\x9aHr?'
tRp2184
ag2
(g1654
S'\x16\xc7o?'
tRp2185
ag2
(g1654
S'\xd5<d?'
tRp2186
ag2
(g1654
S'\\\x86\\?'
tRp2187
ag2
(g1654
S'U\xb0c?'
tRp2188
ag2
(g1654
S'\xf90r?'
tRp2189
ag2
(g1654
S'0\x95h?'
tRp2190
ag2
(g1654
S'\x92@c?'
tRp2191
ag2
(g1654
S'\xd5Cs?'
tRp2192
ag2
(g1654
S'-.h?'
tRp2193
ag2
(g1654
S'\xf8\xe9o?'
tRp2194
ag2
(g1654
S'\xb07_?'
tRp2195
ag2
(g1654
S'\xf6\xf5o?'
tRp2196
ag2
(g1654
S'\xb6gq?'
tRp2197
ag2
(g1654
S'\x0e\xc9n?'
tRp2198
ag2
(g1654
S'\xbd\xcdj?'
tRp2199
ag2
(g1654
S'\x8a\xb1q?'
tRp2200
ag2
(g1654
S':;c?'
tRp2201
ag2
(g1654
S'\xd3\x00\xe0>'
tRp2202
ag2
(g1654
S'\x96Xo?'
tRp2203
ag2
(g1654
S'\xfe\xfdu?'
tRp2204
ag2
(g1654
S'\xc2\x91n?'
tRp2205
ag2
(g1654
S'\xee\x80q?'
tRp2206
ag2
(g1654
S'\x8aBs?'
tRp2207
ag2
(g1654
S'\x13\xe6o?'
tRp2208
ag2
(g1654
S'=\xfae?'
tRp2209
ag2
(g1654
S'\xa7eo?'
tRp2210
ag2
(g1654
S'\x95\tf?'
tRp2211
ag2
(g1654
S'\xde\x9cc?'
tRp2212
ag2
(g1654
S'\x85\xaea?'
tRp2213
ag2
(g1654
S'-\x97l?'
tRp2214
ag2
(g1654
S'g9n?'
tRp2215
ag2
(g1654
S'aBq?'
tRp2216
ag2
(g1654
S'\x07dm?'
tRp2217
ag2
(g1654
S'\x00\xbes?'
tRp2218
ag2
(g1654
S'\xa7\x11i?'
tRp2219
ag2
(g1654
S'\xf2\xf7p?'
tRp2220
ag2
(g1654
S'\x91\x8c\t?'
tRp2221
ag2
(g1654
S'{5m?'
tRp2222
ag2
(g1654
S'e3k?'
tRp2223
ag2
(g1654
S'X,e?'
tRp2224
ag2
(g1654
S'\xb8\x8es?'
tRp2225
ag2
(g1654
S'\xb1\x9fq?'
tRp2226
ag2
(g1654
S'\xb7;f?'
tRp2227
ag2
(g1654
S'\x84hh?'
tRp2228
ag2
(g1654
S'\x1b\x84n?'
tRp2229
ag2
(g1654
S'\x9f\xc0m?'
tRp2230
ag2
(g1654
S'~>g?'
tRp2231
ag2
(g1654
S'\x0eBp?'
tRp2232
ag2
(g1654
S'\x8e?a?'
tRp2233
ag2
(g1654
S'Dkm?'
tRp2234
ag2
(g1654
S'\xaf6o?'
tRp2235
ag2
(g1654
S'\x939p?'
tRp2236
ag2
(g1654
S'J\x88r?'
tRp2237
ag2
(g1654
S'\xcf\x19r?'
tRp2238
ag2
(g1654
S'\x81qo?'
tRp2239
ag2
(g1654
S'\xed\x8eq?'
tRp2240
ag2
(g1654
S'\t\xbcb?'
tRp2241
ag2
(g1654
S'aCp?'
tRp2242
ag2
(g1654
S'\xa3\xfbo?'
tRp2243
ag2
(g1654
S'X\xd3m?'
tRp2244
ag2
(g1654
S'\x81\xa1o?'
tRp2245
ag2
(g1654
S'\x1dSq?'
tRp2246
ag2
(g1654
S'\x93hh?'
tRp2247
ag2
(g1654
S'\xbd\xfef?'
tRp2248
ag2
(g1654
S'J\xfbj?'
tRp2249
ag2
(g1654
S'zBr?'
tRp2250
ag2
(g1654
S'\xe6\x13s?'
tRp2251
ag2
(g1654
S'\xc8\xf9h?'
tRp2252
ag2
(g1654
S'\xab-i?'
tRp2253
ag2
(g1654
S'\xd8\x84q?'
tRp2254
ag2
(g1654
S'\x81\xe7s?'
tRp2255
ag2
(g1654
S'\xc8\x9do?'
tRp2256
ag2
(g1654
S'\xb4/b?'
tRp2257
ag2
(g1654
S'\x8e\xd8f?'
tRp2258
ag2
(g1654
S'\xe0\xc8q?'
tRp2259
ag2
(g1654
S'\x8b(\\?'
tRp2260
ag2
(g1654
S'\xb3\x1db?'
tRp2261
ag2
(g1654
S'\x17hn?'
tRp2262
ag2
(g1654
S'r[f?'
tRp2263
ag2
(g1654
S'D\xb6q?'
tRp2264
ag2
(g1654
S'\xa6\x08m?'
tRp2265
ag2
(g1654
S'\xa3]c?'
tRp2266
ag2
(g1654
S'\xaa\xa2e?'
tRp2267
ag2
(g1654
S'\x03\xdao?'
tRp2268
ag2
(g1654
S'i\xa2m?'
tRp2269
ag2
(g1654
S'U\xa9r?'
tRp2270
ag2
(g1654
S'\xc9\x9ds?'
tRp2271
ag2
(g1654
S'1\xf3q?'
tRp2272
ag2
(g1654
S'\xce\x1ae?'
tRp2273
ag2
(g1654
S'2sn?'
tRp2274
ag2
(g1654
S'\xfe]o?'
tRp2275
ag2
(g1654
S'\xce8o?'
tRp2276
ag2
(g1654
S'\xbbXo?'
tRp2277
ag2
(g1654
S'\xdc\x9bd?'
tRp2278
ag2
(g1654
S'h o?'
tRp2279
ag2
(g1654
S'h?g?'
tRp2280
ag2
(g1654
S'k\x15a?'
tRp2281
ag2
(g1654
S'\x0b\xcep?'
tRp2282
ag2
(g1654
S'\x04\x08p?'
tRp2283
ag2
(g1654
S'*\x85p?'
tRp2284
ag2
(g1654
S'\xe7\xc8q?'
tRp2285
ag2
(g1654
S'\x8f\xa6a?'
tRp2286
ag2
(g1654
S'\x87\xe6e?'
tRp2287
ag2
(g1654
S'\xe5pb?'
tRp2288
ag2
(g1654
S'ktj?'
tRp2289
ag2
(g1654
S'@nl?'
tRp2290
ag2
(g1654
S'm\x80s?'
tRp2291
ag2
(g1654
S'\x18\x8en?'
tRp2292
ag2
(g1654
S"\x06'n?"
tRp2293
ag2
(g1654
S'9eo?'
tRp2294
ag2
(g1654
S'\xe9\xf7r?'
tRp2295
ag2
(g1654
S',\x9as?'
tRp2296
ag2
(g1654
S'\\\x10q?'
tRp2297
ag2
(g1654
S'\x01Cp?'
tRp2298
ag2
(g1654
S'\xf0\x05p?'
tRp2299
ag2
(g1654
S'\x0b\xdci?'
tRp2300
ag2
(g1654
S'\xdcHq?'
tRp2301
ag2
(g1654
S'\xc3ih?'
tRp2302
ag2
(g1654
S'C\xd3]?'
tRp2303
ag2
(g1654
S'\xb7&n?'
tRp2304
ag2
(g1654
S'\xf5~n?'
tRp2305
ag2
(g1654
S' en?'
tRp2306
ag2
(g1654
S'r\x1dm?'
tRp2307
ag2
(g1654
S'i\xd9n?'
tRp2308
ag2
(g1654
S'\x9e\x80h?'
tRp2309
ag2
(g1654
S'c\x9am?'
tRp2310
ag2
(g1654
S'\xf0\x17\\?'
tRp2311
ag2
(g1654
S'+\xebc?'
tRp2312
ag2
(g1654
S'\x8d\xf3r?'
tRp2313
ag2
(g1654
S'\x8abc?'
tRp2314
ag2
(g1654
S'\xf3\xedr?'
tRp2315
ag2
(g1654
S'\xd1y`?'
tRp2316
ag2
(g1654
S'\xd7\x08l?'
tRp2317
ag2
(g1654
S'\x81dl?'
tRp2318
ag2
(g1654
S'\x1c%o?'
tRp2319
ag2
(g1654
S'Fbp?'
tRp2320
ag2
(g1654
S'\x97Dp?'
tRp2321
ag2
(g1654
S'\x7fCi?'
tRp2322
ag2
(g1654
S'1\xc6c?'
tRp2323
ag2
(g1654
S'\x1c\xefe?'
tRp2324
ag2
(g1654
S'\x8dYq?'
tRp2325
ag2
(g1654
S'c|q?'
tRp2326
ag2
(g1654
S'\xf0\xdak?'
tRp2327
ag2
(g1654
S'3bo?'
tRp2328
ag2
(g1654
S'\x14\ta?'
tRp2329
ag2
(g1654
S'^\xa9o?'
tRp2330
ag2
(g1654
S'8\x9dr?'
tRp2331
ag2
(g1654
S'\xb4Tm?'
tRp2332
ag2
(g1654
S"''f?"
tRp2333
ag2
(g1654
S'`\xd3b?'
tRp2334
ag2
(g1654
S'9\x12i?'
tRp2335
ag2
(g1654
S'\xf7\x00s?'
tRp2336
ag2
(g1654
S'\r\xb4k?'
tRp2337
ag2
(g1654
S'\xce\xaap?'
tRp2338
ag2
(g1654
S'!\xe3_?'
tRp2339
ag2
(g1654
S'\x03\x1ce?'
tRp2340
ag2
(g1654
S'\x00pd?'
tRp2341
ag2
(g1654
S'h\xcfj?'
tRp2342
ag2
(g1654
S'\xc4\x1cn?'
tRp2343
ag2
(g1654
S'\x85\xecm?'
tRp2344
ag2
(g1654
S'H\ns?'
tRp2345
ag2
(g1654
S'B1o?'
tRp2346
ag2
(g1654
S'[\x05c?'
tRp2347
ag2
(g1654
S'\x80\xaeg?'
tRp2348
ag2
(g1654
S'\xbd\x17j?'
tRp2349
ag2
(g1654
S'\xce.\x10='
tRp2350
ag2
(g1654
S'\x0csj?'
tRp2351
ag2
(g1654
S'Thg?'
tRp2352
ag2
(g1654
S'8\xaai?'
tRp2353
ag2
(g1654
S'1=k?'
tRp2354
ag2
(g1654
S'aUr?'
tRp2355
ag2
(g1654
S'\x0f\x97`?'
tRp2356
ag2
(g1654
S'+\x14n?'
tRp2357
ag2
(g1654
S'\x91\x94`?'
tRp2358
ag2
(g1654
S'\x7f\xc1i?'
tRp2359
ag2
(g1654
S'\x11\x10g?'
tRp2360
ag2
(g1654
S'}c\x1a?'
tRp2361
ag2
(g1654
S'\xca\xbdo?'
tRp2362
ag2
(g1654
S'\x9e\x94n?'
tRp2363
ag2
(g1654
S'1\x1fp?'
tRp2364
ag2
(g1654
S'd\x99r?'
tRp2365
ag2
(g1654
S'\x10\xcfk?'
tRp2366
ag2
(g1654
S'\xdf\x98)?'
tRp2367
ag2
(g1654
S'\x03\xeag?'
tRp2368
ag2
(g1654
S'\xc5Mp?'
tRp2369
ag2
(g1654
S'\xd9 e?'
tRp2370
ag2
(g1654
S'\xf2Ph?'
tRp2371
ag2
(g1654
S'2\xb2h?'
tRp2372
ag2
(g1654
S'\xe0Eo?'
tRp2373
ag2
(g1654
S'_\x97k?'
tRp2374
ag2
(g1654
S'N0l?'
tRp2375
ag2
(g1654
S'\xfabi?'
tRp2376
ag2
(g1654
S'\xcc\xc5d?'
tRp2377
ag2
(g1654
S'\x96\x95r?'
tRp2378
ag2
(g1654
S'\x0f\xc2n?'
tRp2379
ag2
(g1654
S'R\x9cf?'
tRp2380
ag2
(g1654
S'*.p?'
tRp2381
ag2
(g1654
S'\xe2wn?'
tRp2382
ag2
(g1654
S'\xc6\x82\x1b?'
tRp2383
ag2
(g1654
S'\xfb\xdcn?'
tRp2384
ag2
(g1654
S'\x18\xe8l?'
tRp2385
ag2
(g1654
S'\xb1ze?'
tRp2386
ag2
(g1654
S'\x00Si?'
tRp2387
ag2
(g1654
S'\xf4\xe3_?'
tRp2388
ag2
(g1654
S'\xc2._?'
tRp2389
ag2
(g1654
S'\x88~\xfe>'
tRp2390
ag2
(g1654
S'"\xa3o?'
tRp2391
ag2
(g1654
S':^k?'
tRp2392
ag2
(g1654
S'\xbb7m?'
tRp2393
ag2
(g1654
S'\x16\xddn?'
tRp2394
ag2
(g1654
S'\xe0\xa2g?'
tRp2395
ag2
(g1654
S'%Fi?'
tRp2396
ag2
(g1654
S'\xbere?'
tRp2397
ag2
(g1654
S'\x88\xf1p?'
tRp2398
ag2
(g1654
S'33j?'
tRp2399
ag2
(g1654
S'5\xc5e?'
tRp2400
ag2
(g1654
S'"\xe2l?'
tRp2401
ag2
(g1654
S' \x9di?'
tRp2402
ag2
(g1654
S'\xff\xaao?'
tRp2403
ag2
(g1654
S'E\xd9o?'
tRp2404
ag2
(g1654
S'\xb1\xd6n?'
tRp2405
ag2
(g1654
S'\xae\x91m?'
tRp2406
ag2
(g1654
S'";f?'
tRp2407
ag2
(g1654
S'\xe6\xf9k?'
tRp2408
ag2
(g1654
S'\xa1\xf7m?'
tRp2409
ag2
(g1654
S'\xbc1\x10?'
tRp2410
ag2
(g1654
S'\\7i?'
tRp2411
ag2
(g1654
S'\x8bF6?'
tRp2412
ag2
(g1654
S'\xeb\xd2l?'
tRp2413
ag2
(g1654
S'V\x08c?'
tRp2414
ag2
(g1654
S'!\x97i?'
tRp2415
ag2
(g1654
S'\x87\x1fh?'
tRp2416
ag2
(g1654
S'\x84\x1ae?'
tRp2417
ag2
(g1654
S'\r\xc0e?'
tRp2418
ag2
(g1654
S'2\x1dj?'
tRp2419
ag2
(g1654
S'\xf2\xfcn?'
tRp2420
ag2
(g1654
S'\xc6\x95m?'
tRp2421
ag2
(g1654
S'\xebHn?'
tRp2422
ag2
(g1654
S'~\xa4k?'
tRp2423
ag2
(g1654
S'\xffDo?'
tRp2424
ag2
(g1654
S'oem?'
tRp2425
ag2
(g1654
S'\xb6\x01]?'
tRp2426
ag2
(g1654
S'zWc?'
tRp2427
ag2
(g1654
S'\xe8\x15r?'
tRp2428
ag2
(g1654
S'\x07\xdcd?'
tRp2429
ag2
(g1654
S'\xe4[n?'
tRp2430
ag2
(g1654
S'\x92{a?'
tRp2431
ag2
(g1654
S'\xec\x0fr?'
tRp2432
ag2
(g1654
S'\x7f\x83p?'
tRp2433
ag2
(g1654
S'\x17\x91g?'
tRp2434
ag2
(g1654
S'\xdena?'
tRp2435
ag2
(g1654
S'\xe5yb?'
tRp2436
ag2
(g1654
S'\xc3\xb7o?'
tRp2437
ag2
(g1654
S'\x15hp?'
tRp2438
ag2
(g1654
S'\xb4\x12e?'
tRp2439
ag2
(g1654
S'\xe2\xd1l?'
tRp2440
ag2
(g1654
S'PFI?'
tRp2441
ag2
(g1654
S'2u\xad>'
tRp2442
ag2
(g1654
S'\x93\x8al?'
tRp2443
ag2
(g1654
S'\xcd\x1bd?'
tRp2444
ag2
(g1654
S'\x1e\xebg?'
tRp2445
ag2
(g1654
S'p\xf5m?'
tRp2446
ag2
(g1654
S'\xa4\xccg?'
tRp2447
ag2
(g1654
S'J\x86i?'
tRp2448
ag2
(g1654
S'\xb5\xdcp?'
tRp2449
ag2
(g1654
S'$\xa7f?'
tRp2450
ag2
(g1654
S'\xac\xd0_?'
tRp2451
ag2
(g1654
S'\xe3\x15c?'
tRp2452
ag2
(g1654
S')\x12p?'
tRp2453
ag2
(g1654
S'I\xbde?'
tRp2454
ag2
(g1654
S'\xdb\x0f+?'
tRp2455
ag2
(g1654
S'd\x15h?'
tRp2456
ag2
(g1654
S'l0_?'
tRp2457
ag2
(g1654
S'\xaa\xd2s?'
tRp2458
ag2
(g1654
S'.{s?'
tRp2459
ag2
(g1654
S'\x1f\xc2g?'
tRp2460
ag2
(g1654
S'zui?'
tRp2461
ag2
(g1654
S'Gjd?'
tRp2462
ag2
(g1654
S'\x94\xd7Y?'
tRp2463
ag2
(g1654
S'\xf2Op?'
tRp2464
ag2
(g1654
S'(\xdbl?'
tRp2465
ag2
(g1654
S'IRh?'
tRp2466
ag2
(g1654
S'\xeb\xe2m?'
tRp2467
ag2
(g1654
S'\xaf\x8bh?'
tRp2468
ag2
(g1654
S'\x03\x8ej?'
tRp2469
ag2
(g1654
S'N\xa4i?'
tRp2470
ag2
(g1654
S'\x8dN[?'
tRp2471
ag2
(g1654
S'\xaeii?'
tRp2472
ag2
(g1654
S'+\xc1m?'
tRp2473
ag2
(g1654
S'\xf0\xfdn?'
tRp2474
ag2
(g1654
S'V\xe6p?'
tRp2475
ag2
(g1654
S'\xf3<l?'
tRp2476
ag2
(g1654
S'\x88\xf7\x12?'
tRp2477
ag2
(g1654
S'\xd1\x9al?'
tRp2478
ag2
(g1654
S'\xbd\x7fo?'
tRp2479
ag2
(g1654
S'\xc05r?'
tRp2480
ag2
(g1654
S'\xa7\xf9q?'
tRp2481
ag2
(g1654
S'\xe2\xadq?'
tRp2482
ag2
(g1654
S'\xa5\x9dp?'
tRp2483
ag2
(g1654
S'V\xcea?'
tRp2484
ag2
(g1654
S'+\xcdj?'
tRp2485
ag2
(g1654
S'u\xf0e?'
tRp2486
ag2
(g1654
S'\x8e\x0fr?'
tRp2487
ag2
(g1654
S',\xcbe?'
tRp2488
ag2
(g1654
S'\x88Ye?'
tRp2489
ag2
(g1654
S'Q{s?'
tRp2490
ag2
(g1654
S'.\xeeo?'
tRp2491
ag2
(g1654
S'`\x93r?'
tRp2492
ag2
(g1654
S'\xa5\x97`?'
tRp2493
ag2
(g1654
S'M^f?'
tRp2494
ag2
(g1654
S'.\xe1p?'
tRp2495
ag2
(g1654
S'^_p?'
tRp2496
ag2
(g1654
S'<\xa3n?'
tRp2497
ag2
(g1654
S'\xad\xafj?'
tRp2498
ag2
(g1654
S'y\xaec?'
tRp2499
ag2
(g1654
S'\xfcbe?'
tRp2500
ag2
(g1654
S'\x04\x19s?'
tRp2501
ag2
(g1654
S'x6j?'
tRp2502
ag2
(g1654
S'\xf8\xfbh?'
tRp2503
ag2
(g1654
S'\xfe\xaco?'
tRp2504
ag2
(g1654
S'\xa5\xefi?'
tRp2505
ag2
(g1654
S'\xb0\x82h?'
tRp2506
ag2
(g1654
S')C]?'
tRp2507
ag2
(g1654
S'\xf91f?'
tRp2508
ag2
(g1654
S's!g?'
tRp2509
ag2
(g1654
S'\xbd\x16q?'
tRp2510
ag2
(g1654
S'l\xa5l?'
tRp2511
ag2
(g1654
S'\xf4Yh?'
tRp2512
ag2
(g1654
S'x>f?'
tRp2513
ag2
(g1654
S'A\xb5g?'
tRp2514
ag2
(g1654
S'4\x9fk?'
tRp2515
ag2
(g1654
S'#Lk?'
tRp2516
ag2
(g1654
S'\xf2\xb2k?'
tRp2517
ag2
(g1654
S'\xd8\xdcj?'
tRp2518
ag2
(g1654
S'E\x06i?'
tRp2519
ag2
(g1654
S'\xf3Kj?'
tRp2520
ag2
(g1654
S'\xee\x9el?'
tRp2521
ag2
(g1654
S'\xd8\xe3j?'
tRp2522
ag2
(g1654
S'\x15dk?'
tRp2523
ag2
(g1654
S'3\x87g?'
tRp2524
ag2
(g1654
S'\xe1\x02i?'
tRp2525
ag2
(g1654
S'` k?'
tRp2526
ag2
(g1654
S'\xc6"f?'
tRp2527
ag2
(g1654
S'W\xc1m?'
tRp2528
ag2
(g1654
S'\xab\x1dl?'
tRp2529
ag2
(g1654
S'\xa9\xbdh?'
tRp2530
ag2
(g1654
S'P\xcfp?'
tRp2531
ag2
(g1654
S'\xea\xd6g?'
tRp2532
ag2
(g1654
S'\xaf\x17l?'
tRp2533
ag2
(g1654
S'\xf4\xbed?'
tRp2534
ag2
(g1654
S"'\xfbm?"
tRp2535
ag2
(g1654
S';\xc5k?'
tRp2536
ag2
(g1654
S'\xc6\xbah?'
tRp2537
ag2
(g1654
S':@q?'
tRp2538
ag2
(g1654
S'\x801n?'
tRp2539
ag2
(g1654
S'}4i?'
tRp2540
ag2
(g1654
S'\x01 f?'
tRp2541
ag2
(g1654
S'\xcfgd?'
tRp2542
ag2
(g1654
S'\x98Ef?'
tRp2543
ag2
(g1654
S'\x18\xd1o?'
tRp2544
ag2
(g1654
S'\xc3\x06l?'
tRp2545
ag2
(g1654
S'U\xadm?'
tRp2546
ag2
(g1654
S'G\xc6o?'
tRp2547
ag2
(g1654
S'\x82Wn?'
tRp2548
ag2
(g1654
S'\xc2\xcef?'
tRp2549
ag2
(g1654
S'b\x15k?'
tRp2550
ag2
(g1654
S'\xa8E\x1d?'
tRp2551
ag2
(g1654
S'\xfcjj?'
tRp2552
ag2
(g1654
S';\xcdq?'
tRp2553
ag2
(g1654
S'H\xccj?'
tRp2554
ag2
(g1654
S'\x03cm?'
tRp2555
ag2
(g1654
S'Lq\x1b?'
tRp2556
ag2
(g1654
S'\x95Co?'
tRp2557
ag2
(g1654
S' \xfap?'
tRp2558
ag2
(g1654
S'$uo?'
tRp2559
ag2
(g1654
S'lBn?'
tRp2560
ag2
(g1654
S'\x11kn?'
tRp2561
ag2
(g1654
S'9\xa9k?'
tRp2562
ag2
(g1654
S'[.o?'
tRp2563
ag2
(g1654
S'jCn?'
tRp2564
ag2
(g1654
S'\x94"o?'
tRp2565
at.