((lp1
(I2
cnumpy.core.multiarray
scalar
p2
(cnumpy
dtype
p3
(S'u2'
I0
I1
tRp4
(I3
S'<'
NNNI-1
I-1
I0
tbS'\xc4\x00'
tRp5
tp6
a(I3
g2
(g4
S'\x02\x00'
tRp7
tp8
a(I4
g2
(g4
S'\xda\x00'
tRp9
tp10
a(I5
g5
tp11
a(I6
g2
(g4
S'\xdb\x00'
tRp12
tp13
a(I7
g2
(g4
S'\x05\x00'
tRp14
tp15
a(I8
g2
(g4
S'\x06\x00'
tRp16
tp17
a(I9
g2
(g4
S'\xbb\x00'
tRp18
tp19
a(I10
g2
(g4
S'\xcf\x00'
tRp20
tp21
a(I11
g2
(g4
S'\x07\x00'
tRp22
tp23
a(I12
g2
(g4
S'\x1d\x01'
tRp24
tp25
a(I13
g2
(g4
S'\r\x00'
tRp26
tp27
a(I14
g2
(g4
S'\xbc\x00'
tRp28
tp29
a(I15
g2
(g4
S'\x06\x01'
tRp30
tp31
a(I16
g2
(g4
S'\xb7\x00'
tRp32
tp33
a(I17
g2
(g4
S'\xc8\x00'
tRp34
tp35
a(I18
g2
(g4
S'\xc7\x00'
tRp36
tp37
a(I19
g2
(g4
S'\xd4\x00'
tRp38
tp39
a(I20
g2
(g4
S'\xdc\x00'
tRp40
tp41
a(I21
g2
(g4
S'\xec\x00'
tRp42
tp43
a(I22
g2
(g4
S'.\x01'
tRp44
tp45
a(I23
g2
(g4
S'\x16\x00'
tRp46
tp47
a(I24
g2
(g4
S'\x07\x01'
tRp48
tp49
a(I25
g2
(g4
S'\x17\x00'
tRp50
tp51
a(I26
g2
(g4
S'\x19\x00'
tRp52
tp53
a(I27
g2
(g4
S'\x1e\x01'
tRp54
tp55
a(I28
g2
(g4
S'3\x01'
tRp56
tp57
a(I29
g2
(g4
S'\xad\x00'
tRp58
tp59
a(I30
g2
(g4
S'\xd5\x00'
tRp60
tp61
a(I31
g2
(g4
S'\xe1\x00'
tRp62
tp63
a(I32
g2
(g4
S'\x1f\x01'
tRp64
tp65
a(I33
g2
(g4
S'\xde\x00'
tRp66
tp67
a(I34
g2
(g4
S'\xb3\x00'
tRp68
tp69
a(I35
g2
(g4
S'6\x01'
tRp70
tp71
a(I36
g2
(g4
S' \x01'
tRp72
tp73
a(I37
g2
(g4
S'\xc9\x00'
tRp74
tp75
a(I38
g2
(g4
S'\x08\x01'
tRp76
tp77
a(I39
g2
(g4
S'!\x00'
tRp78
tp79
a(I40
g2
(g4
S'\t\x01'
tRp80
tp81
a(I41
g2
(g4
S'\x11\x01'
tRp82
tp83
a(I42
g2
(g4
S'%\x00'
tRp84
tp85
a(I43
g2
(g4
S'?\x01'
tRp86
tp87
a(I44
g2
(g4
S'\n\x01'
tRp88
tp89
a(I45
g2
(g4
S'!\x01'
tRp90
tp91
a(I46
g2
(g4
S'\xf9\x00'
tRp92
tp93
a(I47
g2
(g4
S'\x17\x01'
tRp94
tp95
a(I48
g2
(g4
S'(\x00'
tRp96
tp97
a(I49
g2
(g4
S'\xf2\x00'
tRp98
tp99
a(I50
g2
(g4
S'\xed\x00'
tRp100
tp101
a(I51
g2
(g4
S'(\x01'
tRp102
tp103
a(I52
g2
(g4
S'\x18\x01'
tRp104
tp105
a(I53
g2
(g4
S'\x19\x01'
tRp106
tp107
a(I54
g2
(g4
S'@\x01'
tRp108
tp109
a(I55
g2
(g4
S'S\x01'
tRp110
tp111
a(I56
g2
(g4
S'\xe3\x00'
tRp112
tp113
a(I57
g2
(g4
S'\xca\x00'
tRp114
tp115
a(I58
g2
(g4
S'\xbf\x00'
tRp116
tp117
a(I59
g2
(g4
S'\xf3\x00'
tRp118
tp119
a(I60
g2
(g4
S'5\x00'
tRp120
tp121
a(I61
g114
tp122
a(I62
g2
(g4
S'\xfa\x00'
tRp123
tp124
a(I63
g2
(g4
S'\xfb\x00'
tRp125
tp126
a(I64
g2
(g4
S'7\x00'
tRp127
tp128
a(I65
g2
(g4
S')\x01'
tRp129
tp130
a(I66
g2
(g4
S'9\x00'
tRp131
tp132
a(I67
g2
(g4
S'\xfc\x00'
tRp133
tp134
a(I68
g2
(g4
S'\xe4\x00'
tRp135
tp136
a(I69
g2
(g4
S'\x0b\x01'
tRp137
tp138
a(I70
g2
(g4
S'\xd6\x00'
tRp139
tp140
a(I71
g2
(g4
S'/\x01'
tRp141
tp142
a(I72
g2
(g4
S'*\x01'
tRp143
tp144
a(I73
g2
(g4
S'7\x01'
tRp145
tp146
a(I74
g2
(g4
S'+\x01'
tRp147
tp148
a(I75
g2
(g4
S'\xee\x00'
tRp149
tp150
a(I76
g2
(g4
S'0\x01'
tRp151
tp152
a(I77
g2
(g4
S';\x01'
tRp153
tp154
a(I78
g2
(g4
S'N\x00'
tRp155
tp156
a(I79
g2
(g4
S'\x13\x01'
tRp157
tp158
a(I80
g2
(g4
S'8\x01'
tRp159
tp160
a(I81
g2
(g4
S'\xfd\x00'
tRp161
tp162
a(I82
g2
(g4
S'\x12\x01'
tRp163
tp164
a(I83
g2
(g4
S'"\x01'
tRp165
tp166
a(I84
g2
(g4
S'[\x01'
tRp167
tp168
a(I85
g2
(g4
S'G\x01'
tRp169
tp170
a(I86
g2
(g4
S'\\\x01'
tRp171
tp172
a(I87
g2
(g4
S'\x0c\x01'
tRp173
tp174
a(I88
g2
(g4
S'T\x01'
tRp175
tp176
a(I89
g2
(g4
S'\xd7\x00'
tRp177
tp178
a(I90
g2
(g4
S'\xe0\x00'
tRp179
tp180
a(I91
g2
(g4
S'9\x01'
tRp181
tp182
a(I92
g2
(g4
S'\x14\x01'
tRp183
tp184
a(I93
g2
(g4
S'\xe9\x00'
tRp185
tp186
a(I94
g2
(g4
S'n\x01'
tRp187
tp188
a(I95
g2
(g4
S'H\x01'
tRp189
tp190
a(I96
g2
(g4
S'#\x01'
tRp191
tp192
a(I97
g2
(g4
S'a\x01'
tRp193
tp194
a(I98
g2
(g4
S'\xf4\x00'
tRp195
tp196
a(I99
g2
(g4
S'\xc0\x00'
tRp197
tp198
a(I100
g2
(g4
S'h\x00'
tRp199
tp200
a(I101
g2
(g4
S'\r\x01'
tRp201
tp202
a(I102
g2
(g4
S'N\x01'
tRp203
tp204
a(I103
g2
(g4
S'K\x01'
tRp205
tp206
a(I104
g2
(g4
S'\xc7\x01'
tRp207
tp208
a(I105
g2
(g4
S'1\x01'
tRp209
tp210
a(I106
g2
(g4
S',\x01'
tRp211
tp212
a(I107
g2
(g4
S':\x01'
tRp213
tp214
a(I108
g2
(g4
S'A\x01'
tRp215
tp216
a(I109
g2
(g4
S'\x0e\x01'
tRp217
tp218
a(I110
g2
(g4
S'\x0f\x01'
tRp219
tp220
a(I111
g2
(g4
S'\x87\x01'
tRp221
tp222
a(I112
g2
(g4
S'I\x01'
tRp223
tp224
a(I113
g2
(g4
S'\xfe\x00'
tRp225
tp226
a(I114
g2
(g4
S'$\x01'
tRp227
tp228
a(I115
g2
(g4
S']\x01'
tRp229
tp230
a(I116
g2
(g4
S'\x10\x01'
tRp231
tp232
a(I117
g2
(g4
S'\xea\x00'
tRp233
tp234
a(I118
g2
(g4
S'r\x01'
tRp235
tp236
a(I119
g2
(g4
S'4\x01'
tRp237
tp238
a(I120
g2
(g4
S'\xef\x00'
tRp239
tp240
a(I121
g237
tp241
a(I122
g2
(g4
S'\x9a\x01'
tRp242
tp243
a(I123
g2
(g4
S'<\x01'
tRp244
tp245
a(I124
g2
(g4
S'z\x00'
tRp246
tp247
a(I125
g2
(g4
S'B\x01'
tRp248
tp249
a(I126
g2
(g4
S'\xc5\x00'
tRp250
tp251
a(I127
g2
(g4
S's\x01'
tRp252
tp253
a(I128
g2
(g4
S'~\x00'
tRp254
tp255
a(I129
g2
(g4
S'\xf1\x00'
tRp256
tp257
a(I130
g2
(g4
S'O\x01'
tRp258
tp259
a(I131
g2
(g4
S'\x00\x01'
tRp260
tp261
a(I132
g2
(g4
S'z\x01'
tRp262
tp263
a(I133
g2
(g4
S'P\x01'
tRp264
tp265
a(I134
g2
(g4
S'\xd8\x00'
tRp266
tp267
a(I135
g2
(g4
S'\x1a\x01'
tRp268
tp269
a(I136
g2
(g4
S'L\x01'
tRp270
tp271
a(I137
g2
(g4
S'\x8a\x01'
tRp272
tp273
a(I138
g2
(g4
S'M\x01'
tRp274
tp275
a(I139
g2
(g4
S'\xd1\x00'
tRp276
tp277
a(I140
g2
(g4
S'\x15\x01'
tRp278
tp279
a(I141
g264
tp280
a(I142
g2
(g4
S'\xd9\x00'
tRp281
tp282
a(I143
g2
(g4
S'\xd2\x00'
tRp283
tp284
a(I144
g2
(g4
S'\xc0\x01'
tRp285
tp286
a(I145
g2
(g4
S'b\x01'
tRp287
tp288
a(I146
g2
(g4
S'U\x01'
tRp289
tp290
a(I147
g2
(g4
S'\x1b\x01'
tRp291
tp292
a(I148
g2
(g4
S'%\x01'
tRp293
tp294
a(I149
g2
(g4
S'h\x01'
tRp295
tp296
a(I150
g2
(g4
S'\xa9\x01'
tRp297
tp298
a(I151
g291
tp299
a(I152
g2
(g4
S'\x7f\x01'
tRp300
tp301
a(I153
g2
(g4
S'Q\x01'
tRp302
tp303
a(I154
g2
(g4
S'\x9c\x01'
tRp304
tp305
a(I155
g2
(g4
S'i\x01'
tRp306
tp307
a(I156
g2
(g4
S'V\x01'
tRp308
tp309
a(I157
g2
(g4
S'\x80\x01'
tRp310
tp311
a(I158
g2
(g4
S'{\x01'
tRp312
tp313
a(I159
g2
(g4
S'D\x01'
tRp314
tp315
a(I160
g2
(g4
S'E\x01'
tRp316
tp317
a(I161
g2
(g4
S'o\x01'
tRp318
tp319
a(I162
g2
(g4
S'\xf8\x00'
tRp320
tp321
a(I163
g2
(g4
S'c\x01'
tRp322
tp323
a(I164
g2
(g4
S'j\x01'
tRp324
tp325
a(I165
g2
(g4
S'\x91\x01'
tRp326
tp327
a(I166
g2
(g4
S'\xc1\x01'
tRp328
tp329
a(I167
g161
tp330
a(I168
g2
(g4
S'\x99\x01'
tRp331
tp332
a(I169
g2
(g4
S'm\x01'
tRp333
tp334
a(I170
g2
(g4
S'\xa1\x01'
tRp335
tp336
a(I171
g2
(g4
S'Z\x01'
tRp337
tp338
a(I172
g2
(g4
S'Y\x01'
tRp339
tp340
a(I173
g2
(g4
S'\xa5\x01'
tRp341
tp342
a(I174
g2
(g4
S'\x9b\x01'
tRp343
tp344
a(I175
g2
(g4
S'\x98\x01'
tRp345
tp346
a(I176
g2
(g4
S"'\x01"
tRp347
tp348
a(I177
g2
(g4
S'=\x01'
tRp349
tp350
a(I178
g137
tp351
a(I179
g2
(g4
S'g\x01'
tRp352
tp353
a(I180
g2
(g4
S'\x90\x01'
tRp354
tp355
a(I181
g2
(g4
S'\x89\x01'
tRp356
tp357
a(I182
g2
(g4
S'q\x01'
tRp358
tp359
a(I183
g2
(g4
S'\x88\x01'
tRp360
tp361
a(I184
g2
(g4
S'\xaf\x01'
tRp362
tp363
a(I185
g2
(g4
S'2\x01'
tRp364
tp365
a(I186
g2
(g4
S'k\x01'
tRp366
tp367
a(I187
g2
(g4
S'R\x01'
tRp368
tp369
a(I188
g2
(g4
S'~\x01'
tRp370
tp371
a(I189
g2
(g4
S'\xa8\x01'
tRp372
tp373
a(I190
g2
(g4
S'>\x01'
tRp374
tp375
a(I191
g2
(g4
S'f\x01'
tRp376
tp377
a(I192
g2
(g4
S'X\x01'
tRp378
tp379
a(I193
g2
(g4
S'\x96\x01'
tRp380
tp381
a(I194
g2
(g4
S'F\x01'
tRp382
tp383
a(I195
g2
(g4
S'\x8e\x01'
tRp384
tp385
a(I196
g2
(g4
S'\xa0\x01'
tRp386
tp387
a(I197
g2
(g4
S'\x97\x01'
tRp388
tp389
a(I198
g2
(g4
S'\xde\x01'
tRp390
tp391
a(I199
g2
(g4
S'J\x01'
tRp392
tp393
a(I200
g2
(g4
S'l\x01'
tRp394
tp395
a(I201
g2
(g4
S'y\x01'
tRp396
tp397
a(I202
g2
(g4
S'\x8f\x01'
tRp398
tp399
a(I203
g2
(g4
S'\xd6\x01'
tRp400
tp401
a(I204
g2
(g4
S'v\x01'
tRp402
tp403
a(I205
g2
(g4
S'}\x01'
tRp404
tp405
a(I206
g2
(g4
S'\xb6\x01'
tRp406
tp407
a(I207
g2
(g4
S'\xbf\x01'
tRp408
tp409
a(I208
g2
(g4
S'\xb0\x01'
tRp410
tp411
a(I209
g2
(g4
S'\t\x02'
tRp412
tp413
a(I210
g2
(g4
S'\xdd\x01'
tRp414
tp415
a(I211
g2
(g4
S'\xee\x01'
tRp416
tp417
a(I212
g2
(g4
S'e\x01'
tRp418
tp419
a(I213
g2
(g4
S'\x8d\x01'
tRp420
tp421
a(I214
g2
(g4
S'\xb5\x01'
tRp422
tp423
a(I215
g2
(g4
S'x\x01'
tRp424
tp425
a(I216
g2
(g4
S'\xcc\x01'
tRp426
tp427
a(I217
g143
tp428
a(I218
g2
(g4
S'\xc5\x01'
tRp429
tp430
a(I219
g2
(g4
S'\x86\x01'
tRp431
tp432
a(I220
g2
(g4
S'\xa6\x01'
tRp433
tp434
a(I221
g2
(g4
S'\xba\x01'
tRp435
tp436
a(I222
g2
(g4
S'\xed\x01'
tRp437
tp438
a(I223
g426
tp439
a(I224
g2
(g4
S'\x93\x01'
tRp440
tp441
a(I225
g2
(g4
S'\x8c\x01'
tRp442
tp443
a(I226
g2
(g4
S'\xad\x01'
tRp444
tp445
a(I227
g2
(g4
S'\xb7\x01'
tRp446
tp447
a(I228
g2
(g4
S'\xe5\x01'
tRp448
tp449
a(I229
g2
(g4
S'\xa7\x01'
tRp450
tp451
a(I230
g366
tp452
a(I231
g2
(g4
S'\x84\x01'
tRp453
tp454
a(I232
g2
(g4
S'\xb9\x01'
tRp455
tp456
a(I233
g2
(g4
S'\xfe\x01'
tRp457
tp458
a(I234
g2
(g4
S'`\x01'
tRp459
tp460
a(I235
g2
(g4
S'w\x01'
tRp461
tp462
a(I236
g2
(g4
S'\x9f\x01'
tRp463
tp464
a(I237
g2
(g4
S'\xae\x01'
tRp465
tp466
a(I238
g2
(g4
S'p\x01'
tRp467
tp468
a(I239
g2
(g4
S'\xcb\x01'
tRp469
tp470
a(I240
g2
(g4
S'\xa4\x01'
tRp471
tp472
a(I241
g141
tp473
a(I242
g2
(g4
S'\xf4\x01'
tRp474
tp475
a(I243
g2
(g4
S'd\x01'
tRp476
tp477
a(I244
g2
(g4
S'u\x01'
tRp478
tp479
a(I245
g2
(g4
S'\xb1\x01'
tRp480
tp481
a(I246
g2
(g4
S'\x95\x01'
tRp482
tp483
a(I247
g2
(g4
S'\xac\x01'
tRp484
tp485
a(I248
g2
(g4
S'\xb4\x01'
tRp486
tp487
a(I249
g2
(g4
S'\xc6\x01'
tRp488
tp489
a(I250
g272
tp490
a(I251
g2
(g4
S'^\x01'
tRp491
tp492
a(I252
g2
(g4
S'_\x01'
tRp493
tp494
a(I253
g2
(g4
S't\x01'
tRp495
tp496
a(I254
g2
(g4
S'\x9e\x01'
tRp497
tp498
a(I255
g2
(g4
S'\x85\x01'
tRp499
tp500
a(I256
g2
(g4
S'\xd5\x01'
tRp501
tp502
a(I257
g2
(g4
S'\xe6\x01'
tRp503
tp504
a(I258
g2
(g4
S'\x01\x02'
tRp505
tp506
a(I259
g2
(g4
S'\x82\x01'
tRp507
tp508
a(I260
g2
(g4
S'\xa2\x01'
tRp509
tp510
a(I261
g2
(g4
S'\x94\x01'
tRp511
tp512
a(I262
g2
(g4
S'\xbe\x01'
tRp513
tp514
a(I263
g2
(g4
S'\xc4\x01'
tRp515
tp516
a(I264
g221
tp517
a(I265
g2
(g4
S'\xe4\x01'
tRp518
tp519
a(I266
g2
(g4
S'\x0b\x02'
tRp520
tp521
a(I267
g2
(g4
S'\x1d\x02'
tRp522
tp523
a(I268
g2
(g4
S'\xca\x01'
tRp524
tp525
a(I269
g2
(g4
S'\xc3\x01'
tRp526
tp527
a(I270
g2
(g4
S'\xdc\x01'
tRp528
tp529
a(I271
g2
(g4
S'\xe3\x01'
tRp530
tp531
a(I272
g2
(g4
S'\xb3\x01'
tRp532
tp533
a(I273
g2
(g4
S'\xf9\x01'
tRp534
tp535
a(I274
g2
(g4
S'\xd3\x01'
tRp536
tp537
a(I275
g518
tp538
a(I276
g2
(g4
S'\xa3\x01'
tRp539
tp540
a(I277
g2
(g4
S'\xc8\x01'
tRp541
tp542
a(I278
g2
(g4
S'\xdb\x01'
tRp543
tp544
a(I279
g2
(g4
S'\xec\x01'
tRp545
tp546
a(I280
g2
(g4
S'|\x01'
tRp547
tp548
a(I281
g2
(g4
S'\x81\x01'
tRp549
tp550
a(I282
g2
(g4
S'\x8b\x01'
tRp551
tp552
a(I283
g2
(g4
S'\xb2\x01'
tRp553
tp554
a(I284
g2
(g4
S'\xd2\x01'
tRp555
tp556
a(I285
g2
(g4
S'\x07\x02'
tRp557
tp558
a(I286
g2
(g4
S'\x92\x01'
tRp559
tp560
a(I287
g2
(g4
S'\xc2\x01'
tRp561
tp562
a(I288
g2
(g4
S'\xd9\x01'
tRp563
tp564
a(I289
g2
(g4
S'\xda\x01'
tRp565
tp566
a(I290
g2
(g4
S'\n\x02'
tRp567
tp568
a(I291
g567
tp569
a(I292
g2
(g4
S'\x10\x02'
tRp570
tp571
a(I293
g2
(g4
S'\xbd\x01'
tRp572
tp573
a(I294
g2
(g4
S'\xfb\x01'
tRp574
tp575
a(I295
g2
(g4
S')\x02'
tRp576
tp577
a(I296
g2
(g4
S'\xaa\x01'
tRp578
tp579
a(I297
g2
(g4
S'\xb8\x01'
tRp580
tp581
a(I298
g2
(g4
S'\xd4\x01'
tRp582
tp583
a(I299
g384
tp584
a(I300
g2
(g4
S'.\x02'
tRp585
tp586
a(I301
g28
tp587
a(I302
g2
(g4
S'\xeb\x01'
tRp588
tp589
a(I303
g408
tp590
a(I304
g2
(g4
S'\xd8\x01'
tRp591
tp592
a(I305
g406
tp593
a(I306
g2
(g4
S'\x16\x02'
tRp594
tp595
a(I307
g2
(g4
S'\xf3\x01'
tRp596
tp597
a(I308
g2
(g4
S'\x00\x02'
tRp598
tp599
a(I309
g2
(g4
S'\x17\x02'
tRp600
tp601
a(I310
g2
(g4
S'\x9d\x01'
tRp602
tp603
a(I311
g2
(g4
S'\xbc\x01'
tRp604
tp605
a(I312
g2
(g4
S'\xf1\x01'
tRp606
tp607
a(I313
g2
(g4
S'\xf2\x01'
tRp608
tp609
a(I314
g2
(g4
S'(\x02'
tRp610
tp611
a(I315
g2
(g4
S'\xe1\x01'
tRp612
tp613
a(I316
g2
(g4
S'\x04\x02'
tRp614
tp615
a(I317
g2
(g4
S'5\x02'
tRp616
tp617
a(I318
g2
(g4
S'\x0e\x02'
tRp618
tp619
a(I319
g2
(g4
S'"\x02'
tRp620
tp621
a(I320
g2
(g4
S'9\x02'
tRp622
tp623
a(I321
g2
(g4
S'\xab\x01'
tRp624
tp625
a(I322
g2
(g4
S'\xe8\x01'
tRp626
tp627
a(I323
g2
(g4
S'\x1b\x02'
tRp628
tp629
a(I324
g2
(g4
S'G\x02'
tRp630
tp631
a(I325
g2
(g4
S'\xcf\x01'
tRp632
tp633
a(I326
g2
(g4
S'\xf8\x01'
tRp634
tp635
a(I327
g2
(g4
S'\xe7\x01'
tRp636
tp637
a(I328
g2
(g4
S'\xd1\x01'
tRp638
tp639
a(I329
g2
(g4
S'\xe2\x01'
tRp640
tp641
a(I330
g2
(g4
S'\xe9\x01'
tRp642
tp643
a(I331
g2
(g4
S'\xfc\x01'
tRp644
tp645
a(I332
g2
(g4
S'\x08\x02'
tRp646
tp647
a(I333
g386
tp648
a(I334
g2
(g4
S'\x1a\x02'
tRp649
tp650
a(I335
g2
(g4
S'1\x02'
tRp651
tp652
a(I336
g2
(g4
S'\xce\x01'
tRp653
tp654
a(I337
g2
(g4
S'\xd7\x01'
tRp655
tp656
a(I338
g2
(g4
S'\xe0\x01'
tRp657
tp658
a(I339
g2
(g4
S'\xf0\x01'
tRp659
tp660
a(I340
g2
(g4
S'\xfa\x01'
tRp661
tp662
a(I341
g582
tp663
a(I342
g2
(g4
S'+\x02'
tRp664
tp665
a(I343
g285
tp666
a(I344
g2
(g4
S'0\x02'
tRp667
tp668
a(I345
g2
(g4
S':\x02'
tRp669
tp670
a(I346
g2
(g4
S'\x13\x02'
tRp671
tp672
a(I347
g2
(g4
S'\x15\x02'
tRp673
tp674
a(I348
g2
(g4
S"'\x02"
tRp675
tp676
a(I349
g2
(g4
S'A\x02'
tRp677
tp678
a(I350
g2
(g4
S'-\x02'
tRp679
tp680
a(I351
g2
(g4
S'8\x02'
tRp681
tp682
a(I352
g2
(g4
S'\xd0\x01'
tRp683
tp684
a(I353
g2
(g4
S'\xc9\x01'
tRp685
tp686
a(I354
g2
(g4
S'\x1c\x02'
tRp687
tp688
a(I355
g2
(g4
S'\xbb\x01'
tRp689
tp690
a(I356
g2
(g4
S'\xea\x01'
tRp691
tp692
a(I357
g412
tp693
a(I358
g2
(g4
S'\x0f\x02'
tRp694
tp695
a(I359
g669
tp696
a(I360
g513
tp697
a(I361
g2
(g4
S'\x05\x02'
tRp698
tp699
a(I362
g2
(g4
S'&\x02'
tRp700
tp701
a(I363
g2
(g4
S'\xf7\x01'
tRp702
tp703
a(I364
g2
(g4
S'\x03\x02'
tRp704
tp705
a(I365
g2
(g4
S'\xfd\x01'
tRp706
tp707
a(I366
g2
(g4
S'Q\x02'
tRp708
tp709
a(I367
g2
(g4
S'L\x02'
tRp710
tp711
a(I368
g2
(g4
S'e\x02'
tRp712
tp713
a(I369
g2
(g4
S'\xcd\x01'
tRp714
tp715
a(I370
g2
(g4
S'\x14\x02'
tRp716
tp717
a(I371
g698
tp718
a(I372
g2
(g4
S'K\x02'
tRp719
tp720
a(I373
g2
(g4
S',\x02'
tRp721
tp722
a(I374
g2
(g4
S'@\x02'
tRp723
tp724
a(I375
g2
(g4
S'#\x02'
tRp725
tp726
a(I376
g2
(g4
S'\xf6\x01'
tRp727
tp728
a(I377
g2
(g4
S'\x11\x02'
tRp729
tp730
a(I378
g2
(g4
S'\x19\x02'
tRp731
tp732
a(I379
g2
(g4
S'\xf5\x01'
tRp733
tp734
a(I380
g2
(g4
S'\xef\x01'
tRp735
tp736
a(I381
g2
(g4
S'\xff\x01'
tRp737
tp738
a(I382
g2
(g4
S'N\x02'
tRp739
tp740
a(I383
g2
(g4
S'R\x02'
tRp741
tp742
a(I384
g522
tp743
a(I385
g2
(g4
S'\x02\x02'
tRp744
tp745
a(I386
g2
(g4
S'\x0c\x02'
tRp746
tp747
a(I387
g2
(g4
S'\r\x02'
tRp748
tp749
a(I388
g2
(g4
S'd\x02'
tRp750
tp751
a(I389
g2
(g4
S'\x12\x02'
tRp752
tp753
a(I390
g2
(g4
S'*\x02'
tRp754
tp755
a(I391
g2
(g4
S'\x1f\x02'
tRp756
tp757
a(I392
g2
(g4
S'!\x02'
tRp758
tp759
a(I393
g2
(g4
S'W\x02'
tRp760
tp761
a(I394
g2
(g4
S'3\x02'
tRp762
tp763
a(I395
g2
(g4
S'|\x02'
tRp764
tp765
a(I396
g2
(g4
S'k\x02'
tRp766
tp767
a(I397
g2
(g4
S'\xdf\x01'
tRp768
tp769
a(I398
g2
(g4
S'O\x02'
tRp770
tp771
a(I399
g2
(g4
S'P\x02'
tRp772
tp773
a(I400
g2
(g4
S'%\x02'
tRp774
tp775
a(I401
g480
tp776
a(I402
g2
(g4
S'7\x02'
tRp777
tp778
a(I403
g2
(g4
S'q\x02'
tRp779
tp780
a(I404
g2
(g4
S'/\x02'
tRp781
tp782
a(I405
g2
(g4
S'>\x02'
tRp783
tp784
a(I406
g2
(g4
S' \x02'
tRp785
tp786
a(I407
g2
(g4
S'^\x02'
tRp787
tp788
a(I408
g2
(g4
S'E\x02'
tRp789
tp790
a(I409
g2
(g4
S'\x8b\x02'
tRp791
tp792
a(I410
g2
(g4
S'x\x02'
tRp793
tp794
a(I411
g2
(g4
S'Z\x02'
tRp795
tp796
a(I412
g2
(g4
S'b\x02'
tRp797
tp798
a(I413
g2
(g4
S'\xa2\x02'
tRp799
tp800
a(I414
g2
(g4
S'\x18\x02'
tRp801
tp802
a(I415
g2
(g4
S'6\x02'
tRp803
tp804
a(I416
g2
(g4
S'C\x02'
tRp805
tp806
a(I417
g2
(g4
S'g\x02'
tRp807
tp808
a(I418
g2
(g4
S'?\x02'
tRp809
tp810
a(I419
g2
(g4
S'i\x02'
tRp811
tp812
a(I420
g2
(g4
S'c\x02'
tRp813
tp814
a(I421
g2
(g4
S'~\x02'
tRp815
tp816
a(I422
g2
(g4
S'\x1e\x02'
tRp817
tp818
a(I423
g2
(g4
S'B\x02'
tRp819
tp820
a(I424
g2
(g4
S'D\x02'
tRp821
tp822
a(I425
g2
(g4
S'Y\x02'
tRp823
tp824
a(I426
g2
(g4
S'=\x02'
tRp825
tp826
a(I427
g2
(g4
S'$\x02'
tRp827
tp828
a(I428
g2
(g4
S'I\x02'
tRp829
tp830
a(I429
g805
tp831
a(I430
g2
(g4
S'`\x02'
tRp832
tp833
a(I431
g2
(g4
S'2\x02'
tRp834
tp835
a(I432
g2
(g4
S'p\x02'
tRp836
tp837
a(I433
g2
(g4
S'h\x02'
tRp838
tp839
a(I434
g2
(g4
S'a\x02'
tRp840
tp841
a(I435
g2
(g4
S'\x8c\x02'
tRp842
tp843
a(I436
g2
(g4
S'\x8f\x02'
tRp844
tp845
a(I437
g2
(g4
S';\x02'
tRp846
tp847
a(I438
g2
(g4
S'V\x02'
tRp848
tp849
a(I439
g2
(g4
S'J\x02'
tRp850
tp851
a(I440
g2
(g4
S'\x89\x02'
tRp852
tp853
a(I441
g2
(g4
S'\x83\x02'
tRp854
tp855
a(I442
g2
(g4
S'_\x02'
tRp856
tp857
a(I443
g2
(g4
S'y\x02'
tRp858
tp859
a(I444
g2
(g4
S'\x84\x02'
tRp860
tp861
a(I445
g2
(g4
S'<\x02'
tRp862
tp863
a(I446
g2
(g4
S'U\x02'
tRp864
tp865
a(I447
g2
(g4
S'j\x02'
tRp866
tp867
a(I448
g2
(g4
S'\x8e\x02'
tRp868
tp869
a(I449
g2
(g4
S'}\x02'
tRp870
tp871
a(I450
g2
(g4
S'\xbc\x02'
tRp872
tp873
a(I451
g2
(g4
S']\x02'
tRp874
tp875
a(I452
g2
(g4
S'{\x02'
tRp876
tp877
a(I453
g2
(g4
S'\x9b\x02'
tRp878
tp879
a(I454
g719
tp880
a(I455
g2
(g4
S'\xb8\x02'
tRp881
tp882
a(I456
g2
(g4
S'\x93\x02'
tRp883
tp884
a(I457
g2
(g4
S'\xaa\x02'
tRp885
tp886
a(I458
g2
(g4
S'\xab\x02'
tRp887
tp888
a(I459
g2
(g4
S'T\x02'
tRp889
tp890
a(I460
g2
(g4
S'o\x02'
tRp891
tp892
a(I461
g2
(g4
S'w\x02'
tRp893
tp894
a(I462
g795
tp895
a(I463
g2
(g4
S'\x91\x02'
tRp896
tp897
a(I464
g2
(g4
S'\xa9\x02'
tRp898
tp899
a(I465
g2
(g4
S'\xb5\x02'
tRp900
tp901
a(I466
g2
(g4
S'H\x02'
tRp902
tp903
a(I467
g2
(g4
S'S\x02'
tRp904
tp905
a(I468
g2
(g4
S'\x87\x02'
tRp906
tp907
a(I469
g2
(g4
S'\xa1\x02'
tRp908
tp909
a(I470
g2
(g4
S'\x82\x02'
tRp910
tp911
a(I471
g2
(g4
S's\x02'
tRp912
tp913
a(I472
g2
(g4
S't\x02'
tRp914
tp915
a(I473
g2
(g4
S'\x81\x02'
tRp916
tp917
a(I474
g2
(g4
S'\x9c\x02'
tRp918
tp919
a(I475
g2
(g4
S'\x8d\x02'
tRp920
tp921
a(I476
g2
(g4
S'\x92\x02'
tRp922
tp923
a(I477
g2
(g4
S'z\x02'
tRp924
tp925
a(I478
g2
(g4
S'X\x02'
tRp926
tp927
a(I479
g821
tp928
a(I480
g2
(g4
S'\xb9\x02'
tRp929
tp930
a(I481
g2
(g4
S'\xc8\x02'
tRp931
tp932
a(I482
g2
(g4
S'\\\x02'
tRp933
tp934
a(I483
g2
(g4
S'\x90\x02'
tRp935
tp936
a(I484
g2
(g4
S'\xae\x02'
tRp937
tp938
a(I485
g809
tp939
a(I486
g2
(g4
S'\xc3\x02'
tRp940
tp941
a(I487
g2
(g4
S'\x9d\x02'
tRp942
tp943
a(I488
g2
(g4
S'M\x02'
tRp944
tp945
a(I489
g2
(g4
S'm\x02'
tRp946
tp947
a(I490
g2
(g4
S'f\x02'
tRp948
tp949
a(I491
g2
(g4
S'u\x02'
tRp950
tp951
a(I492
g2
(g4
S'\x86\x02'
tRp952
tp953
a(I493
g2
(g4
S'\xad\x02'
tRp954
tp955
a(I494
g2
(g4
S'\x85\x02'
tRp956
tp957
a(I495
g2
(g4
S'\xbf\x02'
tRp958
tp959
a(I496
g2
(g4
S'\xcf\x02'
tRp960
tp961
a(I497
g2
(g4
S'[\x02'
tRp962
tp963
a(I498
g2
(g4
S'r\x02'
tRp964
tp965
a(I499
g2
(g4
S'\x80\x02'
tRp966
tp967
a(I500
g2
(g4
S'\xa4\x02'
tRp968
tp969
a(I501
g2
(g4
S'\x99\x02'
tRp970
tp971
a(I502
g2
(g4
S'v\x02'
tRp972
tp973
a(I503
g2
(g4
S'\x9a\x02'
tRp974
tp975
a(I504
g774
tp976
a(I505
g2
(g4
S'\xa7\x02'
tRp977
tp978
a(I506
g2
(g4
S'\x88\x02'
tRp979
tp980
a(I507
g2
(g4
S'\xe1\x02'
tRp981
tp982
a(I508
g2
(g4
S'\xed\x02'
tRp983
tp984
a(I509
g725
tp985
a(I510
g2
(g4
S'\x95\x02'
tRp986
tp987
a(I511
g2
(g4
S'\xa8\x02'
tRp988
tp989
a(I512
g2
(g4
S'\xda\x02'
tRp990
tp991
a(I513
g2
(g4
S'l\x02'
tRp992
tp993
a(I514
g2
(g4
S'n\x02'
tRp994
tp995
a(I515
g2
(g4
S'\xa0\x02'
tRp996
tp997
a(I516
g807
tp998
a(I517
g2
(g4
S'\x8a\x02'
tRp999
tp1000
a(I518
g764
tp1001
a(I519
g2
(g4
S'\xa5\x02'
tRp1002
tp1003
a(I520
g2
(g4
S'\xdf\x02'
tRp1004
tp1005
a(I521
g2
(g4
S'\xb4\x02'
tRp1006
tp1007
a(I522
g898
tp1008
a(I523
g2
(g4
S'\xc4\x02'
tRp1009
tp1010
a(I524
g2
(g4
S'\xe6\x02'
tRp1011
tp1012
a(I525
g2
(g4
S'\x7f\x02'
tRp1013
tp1014
a(I526
g2
(g4
S'\xbb\x02'
tRp1015
tp1016
a(I527
g2
(g4
S'\xd2\x02'
tRp1017
tp1018
a(I528
g2
(g4
S'\x97\x02'
tRp1019
tp1020
a(I529
g2
(g4
S'\xa3\x02'
tRp1021
tp1022
a(I530
g2
(g4
S'\xac\x02'
tRp1023
tp1024
a(I531
g2
(g4
S'\xaf\x02'
tRp1025
tp1026
a(I532
g2
(g4
S'\xb6\x02'
tRp1027
tp1028
a(I533
g2
(g4
S'\xb2\x02'
tRp1029
tp1030
a(I534
g2
(g4
S'\xa6\x02'
tRp1031
tp1032
a(I535
g2
(g4
S'\xd5\x02'
tRp1033
tp1034
a(I536
g2
(g4
S'\x9f\x02'
tRp1035
tp1036
a(I537
g2
(g4
S'\x98\x02'
tRp1037
tp1038
a(I538
g960
tp1039
a(I539
g2
(g4
S'\xe0\x02'
tRp1040
tp1041
a(I540
g1040
tp1042
a(I541
g2
(g4
S'\x9e\x02'
tRp1043
tp1044
a(I542
g2
(g4
S'\xc1\x02'
tRp1045
tp1046
a(I543
g2
(g4
S'\xd4\x02'
tRp1047
tp1048
a(I544
g2
(g4
S'\xb7\x02'
tRp1049
tp1050
a(I545
g2
(g4
S'\x96\x02'
tRp1051
tp1052
a(I546
g2
(g4
S'\xc6\x02'
tRp1053
tp1054
a(I547
g2
(g4
S'\xc2\x02'
tRp1055
tp1056
a(I548
g2
(g4
S'\xce\x02'
tRp1057
tp1058
a(I549
g2
(g4
S'\xb3\x02'
tRp1059
tp1060
a(I550
g2
(g4
S'\xcd\x02'
tRp1061
tp1062
a(I551
g2
(g4
S'\x03\x03'
tRp1063
tp1064
a(I552
g900
tp1065
a(I553
g2
(g4
S'\xe5\x02'
tRp1066
tp1067
a(I554
g2
(g4
S'\xba\x02'
tRp1068
tp1069
a(I555
g2
(g4
S'\xc7\x02'
tRp1070
tp1071
a(I556
g2
(g4
S'\xf2\x02'
tRp1072
tp1073
a(I557
g2
(g4
S'\xd8\x02'
tRp1074
tp1075
a(I558
g2
(g4
S'\xc9\x02'
tRp1076
tp1077
a(I559
g2
(g4
S'\xb1\x02'
tRp1078
tp1079
a(I560
g1057
tp1080
a(I561
g2
(g4
S'\xf4\x02'
tRp1081
tp1082
a(I562
g2
(g4
S'\xf5\x02'
tRp1083
tp1084
a(I563
g2
(g4
S'\xca\x02'
tRp1085
tp1086
a(I564
g2
(g4
S'\xcb\x02'
tRp1087
tp1088
a(I565
g2
(g4
S'\xd7\x02'
tRp1089
tp1090
a(I566
g2
(g4
S'\xec\x02'
tRp1091
tp1092
a(I567
g2
(g4
S'\xd9\x02'
tRp1093
tp1094
a(I568
g2
(g4
S'\xff\x02'
tRp1095
tp1096
a(I569
g2
(g4
S'\xf9\x02'
tRp1097
tp1098
a(I570
g2
(g4
S'\x0e\x03'
tRp1099
tp1100
a(I571
g2
(g4
S'\xb0\x02'
tRp1101
tp1102
a(I572
g2
(g4
S'\xbd\x02'
tRp1103
tp1104
a(I573
g2
(g4
S'\xc0\x02'
tRp1105
tp1106
a(I574
g2
(g4
S'\xd0\x02'
tRp1107
tp1108
a(I575
g2
(g4
S'\xe4\x02'
tRp1109
tp1110
a(I576
g2
(g4
S'\xf7\x02'
tRp1111
tp1112
a(I577
g2
(g4
S'\xf6\x02'
tRp1113
tp1114
a(I578
g2
(g4
S'\xfe\x02'
tRp1115
tp1116
a(I579
g2
(g4
S'\xd3\x02'
tRp1117
tp1118
a(I580
g2
(g4
S'\xdc\x02'
tRp1119
tp1120
a(I581
g2
(g4
S'\xbe\x02'
tRp1121
tp1122
a(I582
g2
(g4
S'\xe9\x02'
tRp1123
tp1124
a(I583
g2
(g4
S'\xd1\x02'
tRp1125
tp1126
a(I584
g2
(g4
S'\xde\x02'
tRp1127
tp1128
a(I585
g2
(g4
S'\xcc\x02'
tRp1129
tp1130
a(I586
g2
(g4
S'\xd6\x02'
tRp1131
tp1132
a(I587
g2
(g4
S'\xe8\x02'
tRp1133
tp1134
a(I588
g2
(g4
S'\xef\x02'
tRp1135
tp1136
a(I589
g2
(g4
S'\xfd\x02'
tRp1137
tp1138
a(I590
g2
(g4
S'\xf8\x02'
tRp1139
tp1140
a(I591
g2
(g4
S'\x07\x03'
tRp1141
tp1142
a(I592
g2
(g4
S'\xf3\x02'
tRp1143
tp1144
a(I593
g2
(g4
S'\x02\x03'
tRp1145
tp1146
a(I594
g2
(g4
S'\x08\x03'
tRp1147
tp1148
a(I595
g2
(g4
S'\xdd\x02'
tRp1149
tp1150
a(I596
g2
(g4
S'&\x03'
tRp1151
tp1152
a(I597
g2
(g4
S'\xe3\x02'
tRp1153
tp1154
a(I598
g1087
tp1155
a(I599
g2
(g4
S'\xc5\x02'
tRp1156
tp1157
a(I600
g2
(g4
S'\xeb\x02'
tRp1158
tp1159
a(I601
g2
(g4
S'\x06\x03'
tRp1160
tp1161
a(I602
g2
(g4
S'\x1b\x03'
tRp1162
tp1163
a(I603
g2
(g4
S'\x1c\x03'
tRp1164
tp1165
a(I604
g981
tp1166
a(I605
g2
(g4
S'\x05\x03'
tRp1167
tp1168
a(I606
g2
(g4
S'\x14\x03'
tRp1169
tp1170
a(I607
g2
(g4
S'\xdb\x02'
tRp1171
tp1172
a(I608
g2
(g4
S'\xe2\x02'
tRp1173
tp1174
a(I609
g2
(g4
S'\xf1\x02'
tRp1175
tp1176
a(I610
g940
tp1177
a(I611
g2
(g4
S'\x01\x03'
tRp1178
tp1179
a(I612
g2
(g4
S'\x1e\x03'
tRp1180
tp1181
a(I613
g1063
tp1182
a(I614
g2
(g4
S'\x1f\x03'
tRp1183
tp1184
a(I615
g2
(g4
S'\xee\x02'
tRp1185
tp1186
a(I616
g1033
tp1187
a(I617
g2
(g4
S'\xe7\x02'
tRp1188
tp1189
a(I618
g2
(g4
S'\xfa\x02'
tRp1190
tp1191
a(I619
g2
(g4
S'\x0c\x03'
tRp1192
tp1193
a(I620
g2
(g4
S'\xfc\x02'
tRp1194
tp1195
a(I621
g1175
tp1196
a(I622
g2
(g4
S'%\x03'
tRp1197
tp1198
a(I623
g1023
tp1199
a(I624
g2
(g4
S'\x17\x03'
tRp1200
tp1201
a(I625
g2
(g4
S'\xf0\x02'
tRp1202
tp1203
a(I626
g2
(g4
S'\x11\x03'
tRp1204
tp1205
a(I627
g2
(g4
S'\x04\x03'
tRp1206
tp1207
a(I628
g2
(g4
S'\x13\x03'
tRp1208
tp1209
a(I629
g2
(g4
S'\r\x03'
tRp1210
tp1211
a(I630
g2
(g4
S'"\x03'
tRp1212
tp1213
a(I631
g2
(g4
S'\x19\x03'
tRp1214
tp1215
a(I632
g2
(g4
S'\t\x03'
tRp1216
tp1217
a(I633
g2
(g4
S'\x0b\x03'
tRp1218
tp1219
a(I634
g2
(g4
S'\x15\x03'
tRp1220
tp1221
a(I635
g2
(g4
S'\xea\x02'
tRp1222
tp1223
a(I636
g1047
tp1224
a(I637
g2
(g4
S'\xfb\x02'
tRp1225
tp1226
a(I638
g2
(g4
S')\x03'
tRp1227
tp1228
a(I639
g2
(g4
S'/\x03'
tRp1229
tp1230
a(I640
g2
(g4
S'2\x03'
tRp1231
tp1232
a(I641
g2
(g4
S'\x16\x03'
tRp1233
tp1234
a(I642
g2
(g4
S'\x00\x03'
tRp1235
tp1236
a(I643
g2
(g4
S'\x0f\x03'
tRp1237
tp1238
a(I644
g2
(g4
S'>\x03'
tRp1239
tp1240
a(I645
g2
(g4
S'3\x03'
tRp1241
tp1242
a(I646
g2
(g4
S'\n\x03'
tRp1243
tp1244
a(I647
g2
(g4
S'\x10\x03'
tRp1245
tp1246
a(I648
g2
(g4
S' \x03'
tRp1247
tp1248
a(I649
g2
(g4
S'*\x03'
tRp1249
tp1250
a(I650
g2
(g4
S'$\x03'
tRp1251
tp1252
a(I651
g2
(g4
S'.\x03'
tRp1253
tp1254
a(I652
g2
(g4
S'+\x03'
tRp1255
tp1256
a(I653
g2
(g4
S'0\x03'
tRp1257
tp1258
a(I654
g2
(g4
S'A\x03'
tRp1259
tp1260
a(I655
g2
(g4
S'\x18\x03'
tRp1261
tp1262
a(I656
g2
(g4
S'1\x03'
tRp1263
tp1264
a(I657
g2
(g4
S'\x1a\x03'
tRp1265
tp1266
a(I658
g2
(g4
S'@\x03'
tRp1267
tp1268
a(I659
g2
(g4
S';\x03'
tRp1269
tp1270
a(I660
g2
(g4
S'D\x03'
tRp1271
tp1272
a(I661
g2
(g4
S'H\x03'
tRp1273
tp1274
a(I662
g2
(g4
S'(\x03'
tRp1275
tp1276
a(I663
g2
(g4
S'9\x03'
tRp1277
tp1278
a(I664
g2
(g4
S':\x03'
tRp1279
tp1280
a(I665
g2
(g4
S'Z\x03'
tRp1281
tp1282
a(I666
g2
(g4
S'\x1d\x03'
tRp1283
tp1284
a(I667
g2
(g4
S'<\x03'
tRp1285
tp1286
a(I668
g2
(g4
S'M\x03'
tRp1287
tp1288
a(I669
g2
(g4
S'\x12\x03'
tRp1289
tp1290
a(I670
g2
(g4
S'-\x03'
tRp1291
tp1292
a(I671
g2
(g4
S'!\x03'
tRp1293
tp1294
a(I672
g2
(g4
S'8\x03'
tRp1295
tp1296
a(I673
g2
(g4
S'G\x03'
tRp1297
tp1298
a(I674
g2
(g4
S'#\x03'
tRp1299
tp1300
a(I675
g2
(g4
S'L\x03'
tRp1301
tp1302
a(I676
g2
(g4
S'=\x03'
tRp1303
tp1304
a(I677
g2
(g4
S',\x03'
tRp1305
tp1306
a(I678
g2
(g4
S'5\x03'
tRp1307
tp1308
a(I679
g2
(g4
S'6\x03'
tRp1309
tp1310
a(I680
g2
(g4
S'R\x03'
tRp1311
tp1312
a(I681
g2
(g4
S"'\x03"
tRp1313
tp1314
a(I682
g2
(g4
S'C\x03'
tRp1315
tp1316
a(I683
g2
(g4
S'K\x03'
tRp1317
tp1318
a(I684
g2
(g4
S'B\x03'
tRp1319
tp1320
a(I685
g2
(g4
S'4\x03'
tRp1321
tp1322
a(I686
g2
(g4
S'7\x03'
tRp1323
tp1324
a(I687
g2
(g4
S'P\x03'
tRp1325
tp1326
a(I688
g2
(g4
S'^\x03'
tRp1327
tp1328
a(I689
g2
(g4
S'?\x03'
tRp1329
tp1330
a(I690
g2
(g4
S'Q\x03'
tRp1331
tp1332
a(I691
g2
(g4
S']\x03'
tRp1333
tp1334
a(I692
g2
(g4
S'S\x03'
tRp1335
tp1336
a(I693
g2
(g4
S'O\x03'
tRp1337
tp1338
a(I694
g2
(g4
S'N\x03'
tRp1339
tp1340
a(I695
g2
(g4
S'Y\x03'
tRp1341
tp1342
a(I696
g2
(g4
S'U\x03'
tRp1343
tp1344
a(I697
g2
(g4
S'h\x03'
tRp1345
tp1346
a(I698
g1249
tp1347
a(I699
g2
(g4
S'F\x03'
tRp1348
tp1349
a(I700
g1251
tp1350
a(I701
g2
(g4
S'X\x03'
tRp1351
tp1352
a(I702
g2
(g4
S'f\x03'
tRp1353
tp1354
a(I703
g1267
tp1355
a(I704
g2
(g4
S'g\x03'
tRp1356
tp1357
a(I705
g2
(g4
S'I\x03'
tRp1358
tp1359
a(I706
g2
(g4
S'J\x03'
tRp1360
tp1361
a(I707
g2
(g4
S'E\x03'
tRp1362
tp1363
a(I708
g2
(g4
S'T\x03'
tRp1364
tp1365
a(I709
g2
(g4
S'j\x03'
tRp1366
tp1367
a(I710
g2
(g4
S'W\x03'
tRp1368
tp1369
a(I711
g2
(g4
S'a\x03'
tRp1370
tp1371
a(I712
g2
(g4
S'e\x03'
tRp1372
tp1373
a(I713
g2
(g4
S'\\\x03'
tRp1374
tp1375
a(I714
g2
(g4
S'V\x03'
tRp1376
tp1377
a(I715
g1339
tp1378
a(I716
g1335
tp1379
a(I717
g2
(g4
S'b\x03'
tRp1380
tp1381
a(I718
g2
(g4
S'p\x03'
tRp1382
tp1383
a(I719
g2
(g4
S'[\x03'
tRp1384
tp1385
a(I720
g2
(g4
S'`\x03'
tRp1386
tp1387
a(I721
g1341
tp1388
a(I722
g2
(g4
S'n\x03'
tRp1389
tp1390
a(I723
g2
(g4
S'i\x03'
tRp1391
tp1392
a(I724
g2
(g4
S'k\x03'
tRp1393
tp1394
a(I725
g2
(g4
S'c\x03'
tRp1395
tp1396
a(I726
g1386
tp1397
a(I727
g1345
tp1398
a(I728
g2
(g4
S'_\x03'
tRp1399
tp1400
a(I729
g2
(g4
S'o\x03'
tRp1401
tp1402
a(I730
g2
(g4
S'd\x03'
tRp1403
tp1404
a(I731
g2
(g4
S't\x03'
tRp1405
tp1406
a(I732
g2
(g4
S'y\x03'
tRp1407
tp1408
a(I733
g2
(g4
S'z\x03'
tRp1409
tp1410
a(I734
g2
(g4
S'w\x03'
tRp1411
tp1412
a(I735
g2
(g4
S'r\x03'
tRp1413
tp1414
a(I736
g2
(g4
S'm\x03'
tRp1415
tp1416
a(I737
g2
(g4
S's\x03'
tRp1417
tp1418
a(I738
g2
(g4
S'l\x03'
tRp1419
tp1420
a(I739
g2
(g4
S'v\x03'
tRp1421
tp1422
a(I740
g2
(g4
S'{\x03'
tRp1423
tp1424
a(I741
g2
(g4
S'x\x03'
tRp1425
tp1426
a(I742
g2
(g4
S'q\x03'
tRp1427
tp1428
a(I743
g1417
tp1429
a(I744
g2
(g4
S'\x7f\x03'
tRp1430
tp1431
a(I745
g2
(g4
S'}\x03'
tRp1432
tp1433
a(I746
g2
(g4
S'u\x03'
tRp1434
tp1435
a(I747
g1419
tp1436
a(I748
g1413
tp1437
a(I749
g2
(g4
S'\x81\x03'
tRp1438
tp1439
a(I750
g2
(g4
S'\x82\x03'
tRp1440
tp1441
a(I751
g2
(g4
S'~\x03'
tRp1442
tp1443
a(I752
g2
(g4
S'\x87\x03'
tRp1444
tp1445
a(I753
g2
(g4
S'\x8b\x03'
tRp1446
tp1447
a(I754
g2
(g4
S'\x89\x03'
tRp1448
tp1449
a(I755
g2
(g4
S'\x80\x03'
tRp1450
tp1451
a(I756
g2
(g4
S'\x8a\x03'
tRp1452
tp1453
a(I757
g2
(g4
S'\x8e\x03'
tRp1454
tp1455
a(I758
g2
(g4
S'|\x03'
tRp1456
tp1457
a(I759
g2
(g4
S'\x86\x03'
tRp1458
tp1459
a(I760
g2
(g4
S'\x88\x03'
tRp1460
tp1461
a(I761
g1440
tp1462
a(I762
g2
(g4
S'\x84\x03'
tRp1463
tp1464
a(I763
g2
(g4
S'\x85\x03'
tRp1465
tp1466
a(I764
g2
(g4
S'\x8c\x03'
tRp1467
tp1468
a(I765
g2
(g4
S'\x83\x03'
tRp1469
tp1470
a(I766
g2
(g4
S'\x93\x03'
tRp1471
tp1472
a(I767
g2
(g4
S'\x91\x03'
tRp1473
tp1474
a(I768
g2
(g4
S'\x92\x03'
tRp1475
tp1476
a(I769
g2
(g4
S'\x90\x03'
tRp1477
tp1478
a(I770
g1463
tp1479
a(I771
g2
(g4
S'\x8d\x03'
tRp1480
tp1481
a(I772
g2
(g4
S'\x94\x03'
tRp1482
tp1483
a(I773
g2
(g4
S'\x95\x03'
tRp1484
tp1485
a(I774
g2
(g4
S'\x8f\x03'
tRp1486
tp1487
a(lp1488
g2
(g3
(S'f4'
I0
I1
tRp1489
(I3
S'<'
NNNI-1
I-1
I0
tbS')\xfd\x11?'
tRp1490
ag2
(g1489
S'\xe9\xcaa?'
tRp1491
ag2
(g1489
S'\xaf\xc3p?'
tRp1492
ag2
(g1489
S'j\xd9,?'
tRp1493
ag2
(g1489
S'\xce\xf1s?'
tRp1494
ag2
(g1489
S'SYp?'
tRp1495
ag2
(g1489
S'\x11\xa3A?'
tRp1496
ag2
(g1489
S'\xa3nt?'
tRp1497
ag2
(g1489
S'\xd4{i?'
tRp1498
ag2
(g1489
S'\xa1%h?'
tRp1499
ag2
(g1489
S'\xa4\xe5t?'
tRp1500
ag2
(g1489
S'Y\x13t?'
tRp1501
ag2
(g1489
S'\xc1\xabn?'
tRp1502
ag2
(g1489
S'\x05\x8fn?'
tRp1503
ag2
(g1489
S'\xbe\xb6j?'
tRp1504
ag2
(g1489
S'\xe1\xa1p?'
tRp1505
ag2
(g1489
S'\xfa\xc3k?'
tRp1506
ag2
(g1489
S'V\xf9p?'
tRp1507
ag2
(g1489
S'bMo?'
tRp1508
ag2
(g1489
S'w\xc7k?'
tRp1509
ag2
(g1489
S':\xe7o?'
tRp1510
ag2
(g1489
S']\xc5+?'
tRp1511
ag2
(g1489
S'\xd2\tr?'
tRp1512
ag2
(g1489
S'Uj/?'
tRp1513
ag2
(g1489
S'wwW?'
tRp1514
ag2
(g1489
S'&\xfcn?'
tRp1515
ag2
(g1489
S'\x15\xaes?'
tRp1516
ag2
(g1489
S"'xe?"
tRp1517
ag2
(g1489
S'\xc9?n?'
tRp1518
ag2
(g1489
S'\x84\\r?'
tRp1519
ag2
(g1489
S'\x1c\x8fp?'
tRp1520
ag2
(g1489
S'X\x8cs?'
tRp1521
ag2
(g1489
S'C\xb4j?'
tRp1522
ag2
(g1489
S'\x8cCm?'
tRp1523
ag2
(g1489
S'\xe5\x87l?'
tRp1524
ag2
(g1489
S'\xe3\x14Q?'
tRp1525
ag2
(g1489
S'\x8dpm?'
tRp1526
ag2
(g1489
S'\xfcvi?'
tRp1527
ag2
(g1489
S'/\xaep?'
tRp1528
ag2
(g1489
S'V\xbfk?'
tRp1529
ag2
(g1489
S'\xcc6m?'
tRp1530
ag2
(g1489
S'\xd7\x95t?'
tRp1531
ag2
(g1489
S'%\x8ds?'
tRp1532
ag2
(g1489
S'\xe1\xb1"?'
tRp1533
ag2
(g1489
S'\xa1!m?'
tRp1534
ag2
(g1489
S'"{o?'
tRp1535
ag2
(g1489
S'M\x1eF?'
tRp1536
ag2
(g1489
S'I1.?'
tRp1537
ag2
(g1489
S'\xf6\x02m?'
tRp1538
ag2
(g1489
S'\x7f*m?'
tRp1539
ag2
(g1489
S'\xd7\xb4p?'
tRp1540
ag2
(g1489
S'\n\xa4N?'
tRp1541
ag2
(g1489
S'(\ru?'
tRp1542
ag2
(g1489
S'\x00\xf9p?'
tRp1543
ag2
(g1489
S'0\x93X?'
tRp1544
ag2
(g1489
S'\x8a\xe0b?'
tRp1545
ag2
(g1489
S'I#d?'
tRp1546
ag2
(g1489
S'9\xf2e?'
tRp1547
ag2
(g1489
S'\x03}U?'
tRp1548
ag2
(g1489
S'~\xc4m>'
tRp1549
ag2
(g1489
S'`6e?'
tRp1550
ag2
(g1489
S'\x81\xbdq?'
tRp1551
ag2
(g1489
S'\xae\x8bj?'
tRp1552
ag2
(g1489
S'V\x0eg?'
tRp1553
ag2
(g1489
S'c2W?'
tRp1554
ag2
(g1489
S'\xb6\x86i?'
tRp1555
ag2
(g1489
S'\xdeT\\?'
tRp1556
ag2
(g1489
S'\x19\t\x7f>'
tRp1557
ag2
(g1489
S'\xc5\xd0m?'
tRp1558
ag2
(g1489
S'\xdbM%?'
tRp1559
ag2
(g1489
S'\xffl\x1a?'
tRp1560
ag2
(g1489
S'Qpn?'
tRp1561
ag2
(g1489
S'M\\r?'
tRp1562
ag2
(g1489
S'\x82\xac`?'
tRp1563
ag2
(g1489
S'\x11\xdan?'
tRp1564
ag2
(g1489
S'=\x0fm?'
tRp1565
ag2
(g1489
S'_}#?'
tRp1566
ag2
(g1489
S'\x13\x1bY?'
tRp1567
ag2
(g1489
S'\xe0dq?'
tRp1568
ag2
(g1489
S'\xdb\x95\xbf>'
tRp1569
ag2
(g1489
S'X;f?'
tRp1570
ag2
(g1489
S'\x122p?'
tRp1571
ag2
(g1489
S'\xfc\x14s?'
tRp1572
ag2
(g1489
S'0:r?'
tRp1573
ag2
(g1489
S'DVq?'
tRp1574
ag2
(g1489
S'\xb5\xd0^?'
tRp1575
ag2
(g1489
S'<at?'
tRp1576
ag2
(g1489
S'\x91\xe6_?'
tRp1577
ag2
(g1489
S'\r l?'
tRp1578
ag2
(g1489
S'*\x00k?'
tRp1579
ag2
(g1489
S'X\x15j?'
tRp1580
ag2
(g1489
S'\x8d@j?'
tRp1581
ag2
(g1489
S't\xc0o?'
tRp1582
ag2
(g1489
S'\x90Lu?'
tRp1583
ag2
(g1489
S'\x8f\x87r?'
tRp1584
ag2
(g1489
S'\xc4}j?'
tRp1585
ag2
(g1489
S'\xc5\xe1j?'
tRp1586
ag2
(g1489
S'l\x0fL?'
tRp1587
ag2
(g1489
S'3.i?'
tRp1588
ag2
(g1489
S'\x8dsk?'
tRp1589
ag2
(g1489
S'\xaeis?'
tRp1590
ag2
(g1489
S'syc?'
tRp1591
ag2
(g1489
S'i\x93C?'
tRp1592
ag2
(g1489
S'\x91`p?'
tRp1593
ag2
(g1489
S'\xf5Et?'
tRp1594
ag2
(g1489
S'\xc9+n?'
tRp1595
ag2
(g1489
S'\x00\xaft?'
tRp1596
ag2
(g1489
S'\xecZ`?'
tRp1597
ag2
(g1489
S'f\xdbb?'
tRp1598
ag2
(g1489
S'*\x16$?'
tRp1599
ag2
(g1489
S'1\xf92?'
tRp1600
ag2
(g1489
S'\xf6\xa3i?'
tRp1601
ag2
(g1489
S'\xc5\x83h?'
tRp1602
ag2
(g1489
S'\xf5\x06n?'
tRp1603
ag2
(g1489
S']\xfbk?'
tRp1604
ag2
(g1489
S'\x82=c?'
tRp1605
ag2
(g1489
S'\x9b\xcct?'
tRp1606
ag2
(g1489
S'\xd7\x02p>'
tRp1607
ag2
(g1489
S'\xd6(b?'
tRp1608
ag2
(g1489
S'\xff\x1c\\?'
tRp1609
ag2
(g1489
S'\x89ur?'
tRp1610
ag2
(g1489
S'v\xb6i?'
tRp1611
ag2
(g1489
S'1\xc2f?'
tRp1612
ag2
(g1489
S'\xfe!u?'
tRp1613
ag2
(g1489
S'\x85\x0be?'
tRp1614
ag2
(g1489
S'\x9fPs?'
tRp1615
ag2
(g1489
S'\x11\x91K?'
tRp1616
ag2
(g1489
S'\x9bBl?'
tRp1617
ag2
(g1489
S'd\xaam?'
tRp1618
ag2
(g1489
S'w\xe3a?'
tRp1619
ag2
(g1489
S'\xae"m?'
tRp1620
ag2
(g1489
S'O\xbf;?'
tRp1621
ag2
(g1489
S'@\x84o?'
tRp1622
ag2
(g1489
S'\x9c\x9eP?'
tRp1623
ag2
(g1489
S'\xb9\x80]?'
tRp1624
ag2
(g1489
S'\xa4z\xd4>'
tRp1625
ag2
(g1489
S'\xce~e?'
tRp1626
ag2
(g1489
S'w\xcfa?'
tRp1627
ag2
(g1489
S'j*g?'
tRp1628
ag2
(g1489
S'9\x1d\xe5>'
tRp1629
ag2
(g1489
S'\xc82j?'
tRp1630
ag2
(g1489
S'\xd1~k?'
tRp1631
ag2
(g1489
S'\x91\xd6;?'
tRp1632
ag2
(g1489
S'\xf4Yu?'
tRp1633
ag2
(g1489
S'A\xf7n?'
tRp1634
ag2
(g1489
S'\x99\xc50?'
tRp1635
ag2
(g1489
S'z\xc7p?'
tRp1636
ag2
(g1489
S'\xf5\xa5j?'
tRp1637
ag2
(g1489
S'\xe1uo?'
tRp1638
ag2
(g1489
S'\x16\xc4\xf4>'
tRp1639
ag2
(g1489
S'\xe6:m?'
tRp1640
ag2
(g1489
S'\x91\x06p?'
tRp1641
ag2
(g1489
S'!\x1fR?'
tRp1642
ag2
(g1489
S'*\xdfc?'
tRp1643
ag2
(g1489
S'\x9dvo?'
tRp1644
ag2
(g1489
S'\x89\x13r?'
tRp1645
ag2
(g1489
S'\xc6\xf5p?'
tRp1646
ag2
(g1489
S'f\x9be?'
tRp1647
ag2
(g1489
S'fRs?'
tRp1648
ag2
(g1489
S'Flk?'
tRp1649
ag2
(g1489
S'\xcf\x1ah?'
tRp1650
ag2
(g1489
S'\xc1\x99i?'
tRp1651
ag2
(g1489
S'\xc7\x08n?'
tRp1652
ag2
(g1489
S'\xf05b?'
tRp1653
ag2
(g1489
S'\xf4\x9fo?'
tRp1654
ag2
(g1489
S'\xfc\xe9D?'
tRp1655
ag2
(g1489
S'F\xc5i?'
tRp1656
ag2
(g1489
S'[hk?'
tRp1657
ag2
(g1489
S'\x85\xf4f?'
tRp1658
ag2
(g1489
S'\x11\x85v?'
tRp1659
ag2
(g1489
S'@\xd5m?'
tRp1660
ag2
(g1489
S'\xfcHv?'
tRp1661
ag2
(g1489
S'/\xbfo?'
tRp1662
ag2
(g1489
S'mMu?'
tRp1663
ag2
(g1489
S'\xc8\xf3t?'
tRp1664
ag2
(g1489
S'\xa1Zm?'
tRp1665
ag2
(g1489
S'q\x1c[?'
tRp1666
ag2
(g1489
S'_\xean?'
tRp1667
ag2
(g1489
S'\xa4\x9et?'
tRp1668
ag2
(g1489
S'\x1e1m?'
tRp1669
ag2
(g1489
S'\x18\xc2H?'
tRp1670
ag2
(g1489
S'S$g?'
tRp1671
ag2
(g1489
S'\xe7up?'
tRp1672
ag2
(g1489
S'\xa7ct?'
tRp1673
ag2
(g1489
S'+\xc0\xf6>'
tRp1674
ag2
(g1489
S'\xc5Xr?'
tRp1675
ag2
(g1489
S'\xfaLp?'
tRp1676
ag2
(g1489
S'\xac\xdcg?'
tRp1677
ag2
(g1489
S'\x1c\x9bt?'
tRp1678
ag2
(g1489
S'\xda4n?'
tRp1679
ag2
(g1489
S',,m?'
tRp1680
ag2
(g1489
S'F9r?'
tRp1681
ag2
(g1489
S"'\x80p?"
tRp1682
ag2
(g1489
S'B\x06.?'
tRp1683
ag2
(g1489
S'n\nC?'
tRp1684
ag2
(g1489
S')Fv?'
tRp1685
ag2
(g1489
S'>\xd4u?'
tRp1686
ag2
(g1489
S'\xa7\x84v?'
tRp1687
ag2
(g1489
S'\x81\xe6u?'
tRp1688
ag2
(g1489
S'z=]?'
tRp1689
ag2
(g1489
S'\xf7tq?'
tRp1690
ag2
(g1489
S'\xbd\x0fh?'
tRp1691
ag2
(g1489
S')Tm?'
tRp1692
ag2
(g1489
S'`\xdbm?'
tRp1693
ag2
(g1489
S'\xe1\xd4.?'
tRp1694
ag2
(g1489
S'6x;?'
tRp1695
ag2
(g1489
S'\xb2qp?'
tRp1696
ag2
(g1489
S'\x01\xa0\x15?'
tRp1697
ag2
(g1489
S'\xc4\xc4k?'
tRp1698
ag2
(g1489
S'V\x96r?'
tRp1699
ag2
(g1489
S'\xd5Pk?'
tRp1700
ag2
(g1489
S'\xe0\xe7v?'
tRp1701
ag2
(g1489
S'\xf0lu?'
tRp1702
ag2
(g1489
S'\x88(l?'
tRp1703
ag2
(g1489
S'&\xe4\x0b?'
tRp1704
ag2
(g1489
S'\xb7Y"?'
tRp1705
ag2
(g1489
S'\xfa\x9er?'
tRp1706
ag2
(g1489
S'\xc5Nl?'
tRp1707
ag2
(g1489
S'g\x90l?'
tRp1708
ag2
(g1489
S'4Vr?'
tRp1709
ag2
(g1489
S'\xf5\xf3t?'
tRp1710
ag2
(g1489
S'i!*?'
tRp1711
ag2
(g1489
S'\x82rq?'
tRp1712
ag2
(g1489
S'\xc5\x8di?'
tRp1713
ag2
(g1489
S'Y\xf2e?'
tRp1714
ag2
(g1489
S'\xcc\xf8n?'
tRp1715
ag2
(g1489
S'$\xc0q?'
tRp1716
ag2
(g1489
S'\xb6\x8bb?'
tRp1717
ag2
(g1489
S']\xcf4?'
tRp1718
ag2
(g1489
S'\x8c\x8f]?'
tRp1719
ag2
(g1489
S'\xffrn?'
tRp1720
ag2
(g1489
S'\xbf<r?'
tRp1721
ag2
(g1489
S'\x1a\x16f?'
tRp1722
ag2
(g1489
S'vBd?'
tRp1723
ag2
(g1489
S'X\x80m?'
tRp1724
ag2
(g1489
S'Z\x05g?'
tRp1725
ag2
(g1489
S'8mt?'
tRp1726
ag2
(g1489
S'\xc9\x94p?'
tRp1727
ag2
(g1489
S'\xcaOj?'
tRp1728
ag2
(g1489
S'\xf5 \x1d?'
tRp1729
ag2
(g1489
S'\xcb9u?'
tRp1730
ag2
(g1489
S'\x10Vo?'
tRp1731
ag2
(g1489
S'w\x89j?'
tRp1732
ag2
(g1489
S'\xb3\xa36?'
tRp1733
ag2
(g1489
S'RVk?'
tRp1734
ag2
(g1489
S'F\x98o?'
tRp1735
ag2
(g1489
S'\xc2\xe3p?'
tRp1736
ag2
(g1489
S'\xac\xcam?'
tRp1737
ag2
(g1489
S'5lH?'
tRp1738
ag2
(g1489
S'0\x06r?'
tRp1739
ag2
(g1489
S'\x07\x88i?'
tRp1740
ag2
(g1489
S'\x96\x8cq?'
tRp1741
ag2
(g1489
S'iLo?'
tRp1742
ag2
(g1489
S'\xb8\x8bk?'
tRp1743
ag2
(g1489
S'\x86\xafp?'
tRp1744
ag2
(g1489
S'!\x10i?'
tRp1745
ag2
(g1489
S'\x89\xc8q?'
tRp1746
ag2
(g1489
S'\x06\xf2n?'
tRp1747
ag2
(g1489
S'?\xa8q?'
tRp1748
ag2
(g1489
S'*\x0er?'
tRp1749
ag2
(g1489
S'\xdfH0?'
tRp1750
ag2
(g1489
S'\xc8\xf0r?'
tRp1751
ag2
(g1489
S'\xc2K\x19?'
tRp1752
ag2
(g1489
S'\x8dA\x0c?'
tRp1753
ag2
(g1489
S'\x82\x8cp?'
tRp1754
ag2
(g1489
S"m\r'?"
tRp1755
ag2
(g1489
S'\x9c\xc3o?'
tRp1756
ag2
(g1489
S'\xd3\xdfj?'
tRp1757
ag2
(g1489
S',\x0br?'
tRp1758
ag2
(g1489
S's\xd9n?'
tRp1759
ag2
(g1489
S'\xb5\x9eq?'
tRp1760
ag2
(g1489
S'\x9c]w?'
tRp1761
ag2
(g1489
S'\x01Cm?'
tRp1762
ag2
(g1489
S'^\x111?'
tRp1763
ag2
(g1489
S'\xfdcm?'
tRp1764
ag2
(g1489
S'\xe8}i?'
tRp1765
ag2
(g1489
S']\x8eo?'
tRp1766
ag2
(g1489
S'\n\xa0r?'
tRp1767
ag2
(g1489
S'\x87\xd4s?'
tRp1768
ag2
(g1489
S'\xbaqs?'
tRp1769
ag2
(g1489
S'\x85kp?'
tRp1770
ag2
(g1489
S'\xba\xdcq?'
tRp1771
ag2
(g1489
S'\xc0\xabn?'
tRp1772
ag2
(g1489
S'\xdaWd?'
tRp1773
ag2
(g1489
S'\xe48r?'
tRp1774
ag2
(g1489
S'c\xf2j?'
tRp1775
ag2
(g1489
S'\xf4`t?'
tRp1776
ag2
(g1489
S'\xe9/r?'
tRp1777
ag2
(g1489
S'~,\xb9>'
tRp1778
ag2
(g1489
S'UoH?'
tRp1779
ag2
(g1489
S'\xdd\xd3c?'
tRp1780
ag2
(g1489
S'\x93Ts?'
tRp1781
ag2
(g1489
S'\xfeut?'
tRp1782
ag2
(g1489
S'\r(m?'
tRp1783
ag2
(g1489
S'R\xedp?'
tRp1784
ag2
(g1489
S'cpp?'
tRp1785
ag2
(g1489
S'\xca\xdc\xfc>'
tRp1786
ag2
(g1489
S'v\xa5\x0f?'
tRp1787
ag2
(g1489
S'\xf9^n?'
tRp1788
ag2
(g1489
S'\x18\x12\xc6<'
tRp1789
ag2
(g1489
S'\x94`u?'
tRp1790
ag2
(g1489
S'\xe4\xe9\x04?'
tRp1791
ag2
(g1489
S'\x18\x96h?'
tRp1792
ag2
(g1489
S' s\n?'
tRp1793
ag2
(g1489
S'Qht?'
tRp1794
ag2
(g1489
S')Kq?'
tRp1795
ag2
(g1489
S'\xa9?p?'
tRp1796
ag2
(g1489
S'\xe3;m?'
tRp1797
ag2
(g1489
S'\x05\xa3s?'
tRp1798
ag2
(g1489
S'H\xd1k?'
tRp1799
ag2
(g1489
S'*\xc0o?'
tRp1800
ag2
(g1489
S'Y\xbad?'
tRp1801
ag2
(g1489
S'4\\l?'
tRp1802
ag2
(g1489
S'S\x97n?'
tRp1803
ag2
(g1489
S' \xdb\x1c?'
tRp1804
ag2
(g1489
S'\xec\xc6l?'
tRp1805
ag2
(g1489
S',\xfcm?'
tRp1806
ag2
(g1489
S'|\x19k?'
tRp1807
ag2
(g1489
S'\x88\xd5c?'
tRp1808
ag2
(g1489
S'+Wr?'
tRp1809
ag2
(g1489
S'-\xa4m?'
tRp1810
ag2
(g1489
S'\xf8\xf5h?'
tRp1811
ag2
(g1489
S'\x83\x88r?'
tRp1812
ag2
(g1489
S'\x9d\x85s?'
tRp1813
ag2
(g1489
S')\xdfo?'
tRp1814
ag2
(g1489
S'uYm?'
tRp1815
ag2
(g1489
S'&\xacn?'
tRp1816
ag2
(g1489
S'\xdexk?'
tRp1817
ag2
(g1489
S'\xf8_m?'
tRp1818
ag2
(g1489
S'<\x19r?'
tRp1819
ag2
(g1489
S'G1n?'
tRp1820
ag2
(g1489
S'G\x96\xe4>'
tRp1821
ag2
(g1489
S'\xafxr?'
tRp1822
ag2
(g1489
S'\x0b&s?'
tRp1823
ag2
(g1489
S'(wp?'
tRp1824
ag2
(g1489
S'YHn?'
tRp1825
ag2
(g1489
S'\x05\xfap?'
tRp1826
ag2
(g1489
S'+\xa5o?'
tRp1827
ag2
(g1489
S'\xb2\x1ao?'
tRp1828
ag2
(g1489
S'\xe536?'
tRp1829
ag2
(g1489
S'\xddnp?'
tRp1830
ag2
(g1489
S'\x0b\x82\x05?'
tRp1831
ag2
(g1489
S'7\x85m?'
tRp1832
ag2
(g1489
S'\x83\x94\x17?'
tRp1833
ag2
(g1489
S'\x13\x98u?'
tRp1834
ag2
(g1489
S'yxj?'
tRp1835
ag2
(g1489
S'\xc1nq?'
tRp1836
ag2
(g1489
S'\xaa\xf6n?'
tRp1837
ag2
(g1489
S')\xb4g?'
tRp1838
ag2
(g1489
S'\xd64j?'
tRp1839
ag2
(g1489
S"\x11'p?"
tRp1840
ag2
(g1489
S'\xe7\xedg?'
tRp1841
ag2
(g1489
S'\xe40l?'
tRp1842
ag2
(g1489
S'\xc8Co?'
tRp1843
ag2
(g1489
S'\x97\xc9q?'
tRp1844
ag2
(g1489
S'b</?'
tRp1845
ag2
(g1489
S'\xc7mr?'
tRp1846
ag2
(g1489
S'\xaf{\x1f?'
tRp1847
ag2
(g1489
S'\x9c\xea\x08?'
tRp1848
ag2
(g1489
S'\xa8\x85&?'
tRp1849
ag2
(g1489
S'Eqm?'
tRp1850
ag2
(g1489
S'\xad\xa4m?'
tRp1851
ag2
(g1489
S'KCq?'
tRp1852
ag2
(g1489
S'\xfeTo?'
tRp1853
ag2
(g1489
S'\xf1Op?'
tRp1854
ag2
(g1489
S'X\x12k?'
tRp1855
ag2
(g1489
S'\x1a\x0en?'
tRp1856
ag2
(g1489
S'\xbe3r?'
tRp1857
ag2
(g1489
S'\xa2Fl?'
tRp1858
ag2
(g1489
S'#E\x0e?'
tRp1859
ag2
(g1489
S'\xc2\x07J?'
tRp1860
ag2
(g1489
S'\xe6\xd3o?'
tRp1861
ag2
(g1489
S'\xbc\xb9n?'
tRp1862
ag2
(g1489
S'6U6?'
tRp1863
ag2
(g1489
S'Itn?'
tRp1864
ag2
(g1489
S'\x12aq?'
tRp1865
ag2
(g1489
S'Phn?'
tRp1866
ag2
(g1489
S'\x08et?'
tRp1867
ag2
(g1489
S'"}t?'
tRp1868
ag2
(g1489
S'\xd40s?'
tRp1869
ag2
(g1489
S'Q\xc1s?'
tRp1870
ag2
(g1489
S'r\x95n?'
tRp1871
ag2
(g1489
S'0S\x15?'
tRp1872
ag2
(g1489
S'\xfb1m?'
tRp1873
ag2
(g1489
S'/\xdcp?'
tRp1874
ag2
(g1489
S'\xad\x10f?'
tRp1875
ag2
(g1489
S'SCh?'
tRp1876
ag2
(g1489
S'\x82dm?'
tRp1877
ag2
(g1489
S'fZt?'
tRp1878
ag2
(g1489
S'\xecZq?'
tRp1879
ag2
(g1489
S'8Sn?'
tRp1880
ag2
(g1489
S'f2v?'
tRp1881
ag2
(g1489
S'\x15Uj?'
tRp1882
ag2
(g1489
S'\xae\xcf\xec>'
tRp1883
ag2
(g1489
S'\xfb\xb0r?'
tRp1884
ag2
(g1489
S'\x02\x06s?'
tRp1885
ag2
(g1489
S'iUm?'
tRp1886
ag2
(g1489
S'\xa8\xf6p?'
tRp1887
ag2
(g1489
S'K\xb8??'
tRp1888
ag2
(g1489
S'\x98p\x07?'
tRp1889
ag2
(g1489
S'\x9cvq?'
tRp1890
ag2
(g1489
S'\xa7Pl?'
tRp1891
ag2
(g1489
S'\xa3So?'
tRp1892
ag2
(g1489
S'\xe1Dl?'
tRp1893
ag2
(g1489
S'\xb5\xf7l?'
tRp1894
ag2
(g1489
S'CUo?'
tRp1895
ag2
(g1489
S'&\xb4o?'
tRp1896
ag2
(g1489
S'\xe5\x9ar?'
tRp1897
ag2
(g1489
S'I\xcbo?'
tRp1898
ag2
(g1489
S'{\x11/?'
tRp1899
ag2
(g1489
S'w\x02i?'
tRp1900
ag2
(g1489
S'\xe6\xc6n?'
tRp1901
ag2
(g1489
S'$5s?'
tRp1902
ag2
(g1489
S'\xef\x17r?'
tRp1903
ag2
(g1489
S'\xf1\x04#?'
tRp1904
ag2
(g1489
S'\x03A\x1e?'
tRp1905
ag2
(g1489
S'N\x868?'
tRp1906
ag2
(g1489
S'\x15\x1es?'
tRp1907
ag2
(g1489
S'\x97~l?'
tRp1908
ag2
(g1489
S'\x96\xefh?'
tRp1909
ag2
(g1489
S'\x8f\xc2u?'
tRp1910
ag2
(g1489
S'.\x11q?'
tRp1911
ag2
(g1489
S'\xc1\x1cB?'
tRp1912
ag2
(g1489
S'\x8f\xceg?'
tRp1913
ag2
(g1489
S'\xee\xe3n?'
tRp1914
ag2
(g1489
S'\xec\x13p?'
tRp1915
ag2
(g1489
S'\xb9Mq?'
tRp1916
ag2
(g1489
S'\x112\x13?'
tRp1917
ag2
(g1489
S'\xd7\x06o?'
tRp1918
ag2
(g1489
S'\xcc\x98n?'
tRp1919
ag2
(g1489
S'\x8a\x90s?'
tRp1920
ag2
(g1489
S"-'m?"
tRp1921
ag2
(g1489
S' \xb3k?'
tRp1922
ag2
(g1489
S'P\xe2p?'
tRp1923
ag2
(g1489
S'\xab(l?'
tRp1924
ag2
(g1489
S'\xbe\x14s?'
tRp1925
ag2
(g1489
S'\xa6\x9dn?'
tRp1926
ag2
(g1489
S'r\x05m?'
tRp1927
ag2
(g1489
S'\xc2\xfeu?'
tRp1928
ag2
(g1489
S'\xbc\xdci?'
tRp1929
ag2
(g1489
S'\x92\xe5k?'
tRp1930
ag2
(g1489
S'\xe6\xbfr?'
tRp1931
ag2
(g1489
S'3\xa3h?'
tRp1932
ag2
(g1489
S'\xb4bq?'
tRp1933
ag2
(g1489
S'c\x12m?'
tRp1934
ag2
(g1489
S'\xe1\xf7q?'
tRp1935
ag2
(g1489
S'\x13\xd6n?'
tRp1936
ag2
(g1489
S'\xd2\xa4o?'
tRp1937
ag2
(g1489
S'B\xf2n?'
tRp1938
ag2
(g1489
S']\xbfl?'
tRp1939
ag2
(g1489
S'\xec6s?'
tRp1940
ag2
(g1489
S'3Dq?'
tRp1941
ag2
(g1489
S'\xa4l\xbd>'
tRp1942
ag2
(g1489
S'"\xa7j?'
tRp1943
ag2
(g1489
S'\xce"q?'
tRp1944
ag2
(g1489
S'\xc8Am?'
tRp1945
ag2
(g1489
S'\x01\xe9j?'
tRp1946
ag2
(g1489
S'\x07\xc5n?'
tRp1947
ag2
(g1489
S'\xd6\xb0k?'
tRp1948
ag2
(g1489
S'\xe5\x0ep?'
tRp1949
ag2
(g1489
S'\xb9\xaa\r?'
tRp1950
ag2
(g1489
S'\xb8\xedk?'
tRp1951
ag2
(g1489
S'Z+0?'
tRp1952
ag2
(g1489
S'\xa1\xbb,?'
tRp1953
ag2
(g1489
S'\x18%r?'
tRp1954
ag2
(g1489
S'\xd4mr?'
tRp1955
ag2
(g1489
S'\x93\xeef?'
tRp1956
ag2
(g1489
S'\x83\xaan?'
tRp1957
ag2
(g1489
S'\xe7\x7fl?'
tRp1958
ag2
(g1489
S'_\x90q?'
tRp1959
ag2
(g1489
S'\xda\xa3n?'
tRp1960
ag2
(g1489
S'\xda\xfbs?'
tRp1961
ag2
(g1489
S'\xb8-q?'
tRp1962
ag2
(g1489
S'gHo?'
tRp1963
ag2
(g1489
S'\xdb\x8ai?'
tRp1964
ag2
(g1489
S'\xba4k?'
tRp1965
ag2
(g1489
S'\xa5\xb4r?'
tRp1966
ag2
(g1489
S'\x02\x7f\xdd>'
tRp1967
ag2
(g1489
S'\x84Ln?'
tRp1968
ag2
(g1489
S'\xd0\xb7p?'
tRp1969
ag2
(g1489
S'y\xd6o?'
tRp1970
ag2
(g1489
S'>\x98p?'
tRp1971
ag2
(g1489
S'F\x9dr?'
tRp1972
ag2
(g1489
S'\xb0\x8b\xf4>'
tRp1973
ag2
(g1489
S'\x81\xaf\x04?'
tRp1974
ag2
(g1489
S'\xcbJj?'
tRp1975
ag2
(g1489
S'\xe3/r?'
tRp1976
ag2
(g1489
S'\x19{v?'
tRp1977
ag2
(g1489
S'\xdcxR?'
tRp1978
ag2
(g1489
S'\xdf\xafd?'
tRp1979
ag2
(g1489
S'\x88\x9fn?'
tRp1980
ag2
(g1489
S'\xf7\ru?'
tRp1981
ag2
(g1489
S'^\xabl?'
tRp1982
ag2
(g1489
S'"\x02g?'
tRp1983
ag2
(g1489
S'\xcb\x87\x18?'
tRp1984
ag2
(g1489
S'\x894q?'
tRp1985
ag2
(g1489
S'\xceEm?'
tRp1986
ag2
(g1489
S'XPq?'
tRp1987
ag2
(g1489
S'\x91*l?'
tRp1988
ag2
(g1489
S'\x98\xffh?'
tRp1989
ag2
(g1489
S'\x90\xcbm?'
tRp1990
ag2
(g1489
S'\x0f\x01t?'
tRp1991
ag2
(g1489
S'\xf3\xd2\xf6>'
tRp1992
ag2
(g1489
S'uxl?'
tRp1993
ag2
(g1489
S'$\x0cj?'
tRp1994
ag2
(g1489
S'<\xf4\x1c?'
tRp1995
ag2
(g1489
S'4\x83n?'
tRp1996
ag2
(g1489
S'X\xac\x0c?'
tRp1997
ag2
(g1489
S'\xbeDl?'
tRp1998
ag2
(g1489
S'S\xa3s?'
tRp1999
ag2
(g1489
S'/\x1ck?'
tRp2000
ag2
(g1489
S'\xe1\xaeq?'
tRp2001
ag2
(g1489
S'\xe51r?'
tRp2002
ag2
(g1489
S'\r%s?'
tRp2003
ag2
(g1489
S'\xbc\x9e\x1d?'
tRp2004
ag2
(g1489
S'cWk?'
tRp2005
ag2
(g1489
S'(\xbd@?'
tRp2006
ag2
(g1489
S'\xa3\xd5m?'
tRp2007
ag2
(g1489
S'\xa2jj?'
tRp2008
ag2
(g1489
S'\xb1<l?'
tRp2009
ag2
(g1489
S'\xa7!\x08?'
tRp2010
ag2
(g1489
S'\x8d\x19n?'
tRp2011
ag2
(g1489
S'O\xa9m?'
tRp2012
ag2
(g1489
S'"\xdfm?'
tRp2013
ag2
(g1489
S'\x1d&o?'
tRp2014
ag2
(g1489
S'\xf0\xf6k?'
tRp2015
ag2
(g1489
S'\xb0\x03k?'
tRp2016
ag2
(g1489
S'\xa5\xf8j?'
tRp2017
ag2
(g1489
S':R)?'
tRp2018
ag2
(g1489
S'\xa2\xb2g?'
tRp2019
ag2
(g1489
S'\xd6\xd3p?'
tRp2020
ag2
(g1489
S'\x96\x86r?'
tRp2021
ag2
(g1489
S'\x1eXq?'
tRp2022
ag2
(g1489
S'A\xbd0?'
tRp2023
ag2
(g1489
S's\xd1o?'
tRp2024
ag2
(g1489
S'\xe1\xbdj?'
tRp2025
ag2
(g1489
S'\xbct\x1b?'
tRp2026
ag2
(g1489
S'\xf7+\x12?'
tRp2027
ag2
(g1489
S'\x07\xf3*?'
tRp2028
ag2
(g1489
S'[\xd0t?'
tRp2029
ag2
(g1489
S's\\c?'
tRp2030
ag2
(g1489
S'4\x18\x02?'
tRp2031
ag2
(g1489
S'\xfe\xb0q?'
tRp2032
ag2
(g1489
S'\x9d\xb7l?'
tRp2033
ag2
(g1489
S'(\xd2l?'
tRp2034
ag2
(g1489
S'\xf6\xe2p?'
tRp2035
ag2
(g1489
S'\xdb\x02\x0f?'
tRp2036
ag2
(g1489
S'\xda\x84r?'
tRp2037
ag2
(g1489
S'.\xfeh?'
tRp2038
ag2
(g1489
S'~N\x13?'
tRp2039
ag2
(g1489
S'RK\x10?'
tRp2040
ag2
(g1489
S'\x83ts?'
tRp2041
ag2
(g1489
S'_\xeck?'
tRp2042
ag2
(g1489
S'4\xb5m?'
tRp2043
ag2
(g1489
S'\xe8Yq?'
tRp2044
ag2
(g1489
S'(\xb5r?'
tRp2045
ag2
(g1489
S'p\x00q?'
tRp2046
ag2
(g1489
S'\xe5\xdei?'
tRp2047
ag2
(g1489
S'\xaf\x81)?'
tRp2048
ag2
(g1489
S'?rp?'
tRp2049
ag2
(g1489
S'h\x0fs?'
tRp2050
ag2
(g1489
S'\x8f\xeeo?'
tRp2051
ag2
(g1489
S'9\x144?'
tRp2052
ag2
(g1489
S'\x83\x83n?'
tRp2053
ag2
(g1489
S'fYq?'
tRp2054
ag2
(g1489
S'7\x88l?'
tRp2055
ag2
(g1489
S'\x928m?'
tRp2056
ag2
(g1489
S'\xd9\x83m?'
tRp2057
ag2
(g1489
S'\xcc\xc5o?'
tRp2058
ag2
(g1489
S'\xf8\xb7q?'
tRp2059
ag2
(g1489
S'd#o?'
tRp2060
ag2
(g1489
S'\x1e\x90p?'
tRp2061
ag2
(g1489
S'\xef\x14q?'
tRp2062
ag2
(g1489
S'\x98\x05u?'
tRp2063
ag2
(g1489
S'\x03\xdfr?'
tRp2064
ag2
(g1489
S'\\\x87l?'
tRp2065
ag2
(g1489
S'\xb3wh?'
tRp2066
ag2
(g1489
S'R[n?'
tRp2067
ag2
(g1489
S'6+p?'
tRp2068
ag2
(g1489
S'\r\x81n?'
tRp2069
ag2
(g1489
S'\xc2\x92n?'
tRp2070
ag2
(g1489
S'i[i?'
tRp2071
ag2
(g1489
S'\xa5\xdek?'
tRp2072
ag2
(g1489
S'zro?'
tRp2073
ag2
(g1489
S'\x8a\rn?'
tRp2074
ag2
(g1489
S'\xea\x82m?'
tRp2075
ag2
(g1489
S'?\x11n?'
tRp2076
ag2
(g1489
S'y\x18s?'
tRp2077
ag2
(g1489
S'\xe3\ti?'
tRp2078
ag2
(g1489
S'z\x9ep?'
tRp2079
ag2
(g1489
S'\x16\xbck?'
tRp2080
ag2
(g1489
S'P.p?'
tRp2081
ag2
(g1489
S'\xaf\xcaj?'
tRp2082
ag2
(g1489
S'#\rn?'
tRp2083
ag2
(g1489
S'\xe2\\m?'
tRp2084
ag2
(g1489
S'c\x06m?'
tRp2085
ag2
(g1489
S'\xeb\xc0\x07?'
tRp2086
ag2
(g1489
S'k\xc6j?'
tRp2087
ag2
(g1489
S'c!m?'
tRp2088
ag2
(g1489
S'r4o?'
tRp2089
ag2
(g1489
S'@\x84q?'
tRp2090
ag2
(g1489
S'\x03\x04g?'
tRp2091
ag2
(g1489
S'<\xfd ?'
tRp2092
ag2
(g1489
S'= v?'
tRp2093
ag2
(g1489
S'k*t?'
tRp2094
ag2
(g1489
S'%qq?'
tRp2095
ag2
(g1489
S'_\x8bp?'
tRp2096
ag2
(g1489
S'0\xed\xf9>'
tRp2097
ag2
(g1489
S'l\xe03?'
tRp2098
ag2
(g1489
S'4\x95n?'
tRp2099
ag2
(g1489
S'\xf5\xd3p?'
tRp2100
ag2
(g1489
S"\xd9\xd4'?"
tRp2101
ag2
(g1489
S'n\xb5j?'
tRp2102
ag2
(g1489
S'\x89\xfan?'
tRp2103
ag2
(g1489
S'\x8c%\x0b?'
tRp2104
ag2
(g1489
S'\x95\x01n?'
tRp2105
ag2
(g1489
S'\x97\xc5m?'
tRp2106
ag2
(g1489
S'\xda\x14o?'
tRp2107
ag2
(g1489
S"'\xe5k?"
tRp2108
ag2
(g1489
S'\xa837?'
tRp2109
ag2
(g1489
S'LJi?'
tRp2110
ag2
(g1489
S'2?\x19?'
tRp2111
ag2
(g1489
S'A\x07n?'
tRp2112
ag2
(g1489
S'\xad\tn?'
tRp2113
ag2
(g1489
S')"n?'
tRp2114
ag2
(g1489
S'f\x9dr?'
tRp2115
ag2
(g1489
S'k\xddp?'
tRp2116
ag2
(g1489
S'\xae\xa3s?'
tRp2117
ag2
(g1489
S'\x06)q?'
tRp2118
ag2
(g1489
S'\xe9vj?'
tRp2119
ag2
(g1489
S'\x91\xe6m?'
tRp2120
ag2
(g1489
S'\xed>t?'
tRp2121
ag2
(g1489
S'+\xf8l?'
tRp2122
ag2
(g1489
S'$ae?'
tRp2123
ag2
(g1489
S'\x84\xdb4?'
tRp2124
ag2
(g1489
S'Iaj?'
tRp2125
ag2
(g1489
S'7#o?'
tRp2126
ag2
(g1489
S'\x9dur?'
tRp2127
ag2
(g1489
S'\x86\x9dm?'
tRp2128
ag2
(g1489
S'\x93\xcck?'
tRp2129
ag2
(g1489
S'I\xa5d?'
tRp2130
ag2
(g1489
S'"]p?'
tRp2131
ag2
(g1489
S'\xee\xf8j?'
tRp2132
ag2
(g1489
S'\xee4n?'
tRp2133
ag2
(g1489
S'\x9e\xfbp?'
tRp2134
ag2
(g1489
S'\xd0\x98l?'
tRp2135
ag2
(g1489
S'\x0bOt?'
tRp2136
ag2
(g1489
S'n\xde)?'
tRp2137
ag2
(g1489
S'\x94\xed\x14?'
tRp2138
ag2
(g1489
S'\xf6\xe1k?'
tRp2139
ag2
(g1489
S'b\x1cq?'
tRp2140
ag2
(g1489
S'I^q?'
tRp2141
ag2
(g1489
S'i\x92h?'
tRp2142
ag2
(g1489
S'\xf4\xeao?'
tRp2143
ag2
(g1489
S'|\x8cl?'
tRp2144
ag2
(g1489
S'\xe5\x05o?'
tRp2145
ag2
(g1489
S'"\xddF?'
tRp2146
ag2
(g1489
S't\xabk?'
tRp2147
ag2
(g1489
S'z\xc9k?'
tRp2148
ag2
(g1489
S'\xe1\xaek?'
tRp2149
ag2
(g1489
S'\xe7\xefq?'
tRp2150
ag2
(g1489
S'\x9ebo?'
tRp2151
ag2
(g1489
S'QPg?'
tRp2152
ag2
(g1489
S'\xe4jj?'
tRp2153
ag2
(g1489
S'\x87\x1en?'
tRp2154
ag2
(g1489
S'r\xeep?'
tRp2155
ag2
(g1489
S'K\xdcj?'
tRp2156
ag2
(g1489
S';\x12n?'
tRp2157
ag2
(g1489
S'\xda\x8fs?'
tRp2158
ag2
(g1489
S'2;n?'
tRp2159
ag2
(g1489
S':4p?'
tRp2160
ag2
(g1489
S'P\xd0m?'
tRp2161
ag2
(g1489
S'Csj?'
tRp2162
ag2
(g1489
S'\xb8\xacp?'
tRp2163
ag2
(g1489
S'\xff\xf4j?'
tRp2164
ag2
(g1489
S'\x89dq?'
tRp2165
ag2
(g1489
S'\xbb k?'
tRp2166
ag2
(g1489
S'X{p?'
tRp2167
ag2
(g1489
S'\xb1wk?'
tRp2168
ag2
(g1489
S'\x82>n?'
tRp2169
ag2
(g1489
S'\x8a\xd3l?'
tRp2170
ag2
(g1489
S'\x81\x84r?'
tRp2171
ag2
(g1489
S'Pio?'
tRp2172
ag2
(g1489
S'p\xb9n?'
tRp2173
ag2
(g1489
S'\xd7\x1fo?'
tRp2174
ag2
(g1489
S'\xa6\xf3p?'
tRp2175
ag2
(g1489
S's\x1dp?'
tRp2176
ag2
(g1489
S'"\x07o?'
tRp2177
ag2
(g1489
S'^\x10o?'
tRp2178
ag2
(g1489
S'?eo?'
tRp2179
ag2
(g1489
S'\xe3$\xff>'
tRp2180
ag2
(g1489
S'\x17&o?'
tRp2181
ag2
(g1489
S'\xec\x855?'
tRp2182
ag2
(g1489
S'\xd1:3?'
tRp2183
ag2
(g1489
S'I,o?'
tRp2184
ag2
(g1489
S'L=/?'
tRp2185
ag2
(g1489
S':\xc9\x12?'
tRp2186
ag2
(g1489
S'\x0fDk?'
tRp2187
ag2
(g1489
S'\xc4\xbb#?'
tRp2188
ag2
(g1489
S'\x08\x8ep?'
tRp2189
ag2
(g1489
S'\xa9Re?'
tRp2190
ag2
(g1489
S'\xb7\x19\xd4>'
tRp2191
ag2
(g1489
S'\xa4\xa9j?'
tRp2192
ag2
(g1489
S'\x9b\x18q?'
tRp2193
ag2
(g1489
S'\xb9\x07q?'
tRp2194
ag2
(g1489
S'`\xcaj?'
tRp2195
ag2
(g1489
S'\xc3\x00k?'
tRp2196
ag2
(g1489
S'/ri?'
tRp2197
ag2
(g1489
S'\xdd\x94s?'
tRp2198
ag2
(g1489
S'\x8b\xa9n?'
tRp2199
ag2
(g1489
S'\xf9\xf8k?'
tRp2200
ag2
(g1489
S'\x04\xbdq?'
tRp2201
ag2
(g1489
S'r\xe0s?'
tRp2202
ag2
(g1489
S':\x8c\x02?'
tRp2203
ag2
(g1489
S'~\x857?'
tRp2204
ag2
(g1489
S'\x03\xfcm?'
tRp2205
ag2
(g1489
S'\xb1\xc6k?'
tRp2206
ag2
(g1489
S'0\xd9o?'
tRp2207
ag2
(g1489
S'xz\xf7>'
tRp2208
ag2
(g1489
S'*\x86\x03?'
tRp2209
ag2
(g1489
S'.\xfdk?'
tRp2210
ag2
(g1489
S'\x1f\xf5p?'
tRp2211
ag2
(g1489
S'\xed\xf4e?'
tRp2212
ag2
(g1489
S'\x170o?'
tRp2213
ag2
(g1489
S'\xc7X<?'
tRp2214
ag2
(g1489
S'\xd4\x07\x03?'
tRp2215
ag2
(g1489
S'C\x96p?'
tRp2216
ag2
(g1489
S':fh?'
tRp2217
ag2
(g1489
S'0\x01q?'
tRp2218
ag2
(g1489
S'\xf8Mn?'
tRp2219
ag2
(g1489
S'\xcb\xffi?'
tRp2220
ag2
(g1489
S'-\xd3g?'
tRp2221
ag2
(g1489
S'\x1d\x92r?'
tRp2222
ag2
(g1489
S'\xcf\x99I?'
tRp2223
ag2
(g1489
S'\xf5\xa9p?'
tRp2224
ag2
(g1489
S'C\xad ?'
tRp2225
ag2
(g1489
S'Og#?'
tRp2226
ag2
(g1489
S'WAn?'
tRp2227
ag2
(g1489
S'\xab\xf6h?'
tRp2228
ag2
(g1489
S'{\x0fm?'
tRp2229
ag2
(g1489
S'g\xa2o?'
tRp2230
ag2
(g1489
S'n\xfb\x19?'
tRp2231
ag2
(g1489
S'x\xafn?'
tRp2232
ag2
(g1489
S'\x95\xdfb?'
tRp2233
ag2
(g1489
S'\xf5\x85p?'
tRp2234
ag2
(g1489
S'\xfb:\x14?'
tRp2235
ag2
(g1489
S'\xdd\xcf\xd6>'
tRp2236
ag2
(g1489
S'A\xa2p?'
tRp2237
ag2
(g1489
S'\x81\xe56?'
tRp2238
ag2
(g1489
S'\xc1\xa8f?'
tRp2239
ag2
(g1489
S'}5m?'
tRp2240
ag2
(g1489
S'\xdd\xb7l?'
tRp2241
ag2
(g1489
S'D0o?'
tRp2242
ag2
(g1489
S'HKn?'
tRp2243
ag2
(g1489
S'\xc8\x17o?'
tRp2244
ag2
(g1489
S'[\x99l?'
tRp2245
ag2
(g1489
S'\xd7\x17q?'
tRp2246
ag2
(g1489
S'#\x87m?'
tRp2247
ag2
(g1489
S'\xaf\x1cl?'
tRp2248
ag2
(g1489
S'`P\xec>'
tRp2249
ag2
(g1489
S"\xdda'?"
tRp2250
ag2
(g1489
S'5&n?'
tRp2251
ag2
(g1489
S'L\xddn?'
tRp2252
ag2
(g1489
S'\xfc\xf1q?'
tRp2253
ag2
(g1489
S'g\x04m?'
tRp2254
ag2
(g1489
S'\x94@r?'
tRp2255
ag2
(g1489
S'J\x9cl?'
tRp2256
ag2
(g1489
S'\x8d\rq?'
tRp2257
ag2
(g1489
S'\xff]\x19?'
tRp2258
ag2
(g1489
S'\xb1\xd6m?'
tRp2259
ag2
(g1489
S'@\nl?'
tRp2260
ag2
(g1489
S'u\xe9j?'
tRp2261
ag2
(g1489
S'\x80\xcar?'
tRp2262
at.