((lp1
(I2
cnumpy.core.multiarray
scalar
p2
(cnumpy
dtype
p3
(S'u2'
I0
I1
tRp4
(I3
S'<'
NNNI-1
I-1
I0
tbS'\x03\x00'
tRp5
tp6
a(I3
g2
(g4
S'\x04\x00'
tRp7
tp8
a(I4
g7
tp9
a(I5
g2
(g4
S'\x83\x00'
tRp10
tp11
a(I6
g2
(g4
S'~\x00'
tRp12
tp13
a(I7
g2
(g4
S'\x06\x00'
tRp14
tp15
a(I8
g2
(g4
S'\x84\x00'
tRp16
tp17
a(I9
g2
(g4
S'v\x00'
tRp18
tp19
a(I10
g2
(g4
S'\x08\x00'
tRp20
tp21
a(I11
g2
(g4
S'\t\x00'
tRp22
tp23
a(I12
g2
(g4
S'{\x00'
tRp24
tp25
a(I13
g2
(g4
S'\x7f\x00'
tRp26
tp27
a(I14
g2
(g4
S'\n\x00'
tRp28
tp29
a(I15
g2
(g4
S'\r\x00'
tRp30
tp31
a(I16
g2
(g4
S'\x01\x00'
tRp32
tp33
a(I17
g32
tp34
a(I18
g2
(g4
S'\x0f\x00'
tRp35
tp36
a(I19
g2
(g4
S'\x13\x00'
tRp37
tp38
a(I20
g2
(g4
S'\x10\x00'
tRp39
tp40
a(I21
g2
(g4
S'\x94\x00'
tRp41
tp42
a(I22
g2
(g4
S'\xbf\x00'
tRp43
tp44
a(I23
g2
(g4
S'\x95\x00'
tRp45
tp46
a(I24
g2
(g4
S'\x89\x00'
tRp47
tp48
a(I25
g37
tp49
a(I26
g32
tp50
a(I27
g2
(g4
S'\x19\x00'
tRp51
tp52
a(I28
g2
(g4
S'\x1c\x00'
tRp53
tp54
a(I29
g2
(g4
S'\x1a\x00'
tRp55
tp56
a(I30
g32
tp57
a(I31
g2
(g4
S'#\x00'
tRp58
tp59
a(I32
g53
tp60
a(I33
g32
tp61
a(I34
g2
(g4
S'\x87\x00'
tRp62
tp63
a(I35
g2
(g4
S'$\x00'
tRp64
tp65
a(I36
g32
tp66
a(I37
g2
(g4
S'&\x00'
tRp67
tp68
a(I38
g2
(g4
S'*\x00'
tRp69
tp70
a(I39
g2
(g4
S')\x00'
tRp71
tp72
a(I40
g2
(g4
S'\xb5\x00'
tRp73
tp74
a(I41
g32
tp75
a(I42
g2
(g4
S'1\x00'
tRp76
tp77
a(I43
g2
(g4
S'\xdf\x00'
tRp78
tp79
a(I44
g71
tp80
a(I45
g71
tp81
a(I46
g2
(g4
S'5\x00'
tRp82
tp83
a(I47
g2
(g4
S'\xa0\x00'
tRp84
tp85
a(I48
g2
(g4
S'2\x00'
tRp86
tp87
a(I49
g2
(g4
S'4\x00'
tRp88
tp89
a(I50
g32
tp90
a(I51
g2
(g4
S'.\x00'
tRp91
tp92
a(I52
g91
tp93
a(I53
g2
(g4
S'<\x00'
tRp94
tp95
a(I54
g2
(g4
S'\xb8\x00'
tRp96
tp97
a(I55
g2
(g4
S'\xcc\x00'
tRp98
tp99
a(I56
g2
(g4
S';\x00'
tRp100
tp101
a(I57
g32
tp102
a(I58
g32
tp103
a(I59
g2
(g4
S'9\x00'
tRp104
tp105
a(I60
g2
(g4
S'>\x00'
tRp106
tp107
a(I61
g2
(g4
S'D\x00'
tRp108
tp109
a(I62
g2
(g4
S'\x80\x00'
tRp110
tp111
a(I63
g2
(g4
S'A\x00'
tRp112
tp113
a(I64
g2
(g4
S'\xb6\x00'
tRp114
tp115
a(I65
g32
tp116
a(I66
g94
tp117
a(I67
g110
tp118
a(I68
g2
(g4
S'\xe0\x00'
tRp119
tp120
a(I69
g2
(g4
S'F\x00'
tRp121
tp122
a(I70
g2
(g4
S'N\x00'
tRp123
tp124
a(I71
g2
(g4
S'O\x00'
tRp125
tp126
a(I72
g32
tp127
a(I73
g2
(g4
S'P\x00'
tRp128
tp129
a(I74
g2
(g4
S'J\x00'
tRp130
tp131
a(I75
g2
(g4
S'\xab\x00'
tRp132
tp133
a(I76
g2
(g4
S'Q\x00'
tRp134
tp135
a(I77
g2
(g4
S'X\x00'
tRp136
tp137
a(I78
g2
(g4
S'V\x00'
tRp138
tp139
a(I79
g32
tp140
a(I80
g2
(g4
S'\xc4\x00'
tRp141
tp142
a(I81
g2
(g4
S'\xdd\x00'
tRp143
tp144
a(I82
g130
tp145
a(I83
g2
(g4
S'\\\x00'
tRp146
tp147
a(I84
g2
(g4
S'\x88\x00'
tRp148
tp149
a(I85
g2
(g4
S'\x9a\x00'
tRp150
tp151
a(I86
g2
(g4
S'[\x00'
tRp152
tp153
a(I87
g2
(g4
S']\x00'
tRp154
tp155
a(I88
g2
(g4
S'\xa7\x00'
tRp156
tp157
a(I89
g32
tp158
a(I90
g2
(g4
S'\xc9\x00'
tRp159
tp160
a(I91
g2
(g4
S'Z\x00'
tRp161
tp162
a(I92
g2
(g4
S'd\x00'
tRp163
tp164
a(I93
g2
(g4
S'^\x00'
tRp165
tp166
a(I94
g2
(g4
S'\x93\x00'
tRp167
tp168
a(I95
g2
(g4
S'b\x00'
tRp169
tp170
a(I96
g2
(g4
S'e\x00'
tRp171
tp172
a(I97
g2
(g4
S'\xb3\x00'
tRp173
tp174
a(I98
g2
(g4
S'j\x00'
tRp175
tp176
a(I99
g32
tp177
a(I100
g2
(g4
S'z\x00'
tRp178
tp179
a(I101
g2
(g4
S'm\x00'
tRp180
tp181
a(I102
g2
(g4
S'\x86\x00'
tRp182
tp183
a(I103
g2
(g4
S'\x8d\x00'
tRp184
tp185
a(I104
g2
(g4
S'p\x00'
tRp186
tp187
a(I105
g2
(g4
S'q\x00'
tRp188
tp189
a(I106
g2
(g4
S'\x99\x00'
tRp190
tp191
a(I107
g2
(g4
S'\x8c\x00'
tRp192
tp193
a(I108
g2
(g4
S's\x00'
tRp194
tp195
a(I109
g2
(g4
S'Y\x00'
tRp196
tp197
a(I110
g2
(g4
S'\x07\x00'
tRp198
tp199
a(I111
g2
(g4
S'\xa5\x00'
tRp200
tp201
a(I112
g2
(g4
S'\x18\x00'
tRp202
tp203
a(I113
g32
tp204
a(I114
g2
(g4
S'=\x00'
tRp205
tp206
a(I115
g2
(g4
S'_\x00'
tRp207
tp208
a(I116
g2
(g4
S'g\x00'
tRp209
tp210
a(I117
g186
tp211
a(I118
g2
(g4
S'\x1f\x00'
tRp212
tp213
a(I119
g2
(g4
S'(\x00'
tRp214
tp215
a(I120
g132
tp216
a(I121
g2
(g4
S'\x17\x00'
tRp217
tp218
a(I122
g2
(g4
S'\xd6\x00'
tRp219
tp220
a(I123
g2
(g4
S'\xd8\x00'
tRp221
tp222
a(I124
g2
(g4
S'\x9d\x00'
tRp223
tp224
a(I125
g2
(g4
S'\x8b\x00'
tRp225
tp226
a(I126
g2
(g4
S'\xd5\x00'
tRp227
tp228
a(I127
g2
(g4
S'k\x00'
tRp229
tp230
a(I128
g10
tp231
a(I129
g2
(g4
S'\x11\x00'
tRp232
tp233
a(I130
g2
(g4
S'\xc1\x00'
tRp234
tp235
a(I131
g2
(g4
S'\xc7\x00'
tRp236
tp237
a(I132
g2
(g4
S'w\x00'
tRp238
tp239
a(I133
g108
tp240
a(I134
g2
(g4
S'\x0e\x00'
tRp241
tp242
a(I135
g2
(g4
S'\xec\x00'
tRp243
tp244
a(I136
g2
(g4
S'%\x00'
tRp245
tp246
a(I137
g2
(g4
S'/\x00'
tRp247
tp248
a(I138
g2
(g4
S'\xd4\x00'
tRp249
tp250
a(I139
g198
tp251
a(I140
g41
tp252
a(I141
g2
(g4
S'\x14\x00'
tRp253
tp254
a(I142
g2
(g4
S'K\x00'
tRp255
tp256
a(I143
g2
(g4
S'R\x00'
tRp257
tp258
a(I144
g16
tp259
a(I145
g2
(g4
S'\xe8\x00'
tRp260
tp261
a(I146
g260
tp262
a(I147
g119
tp263
a(I148
g2
(g4
S'\xd0\x00'
tRp264
tp265
a(I149
g58
tp266
a(I150
g2
(g4
S'c\x00'
tRp267
tp268
a(I151
g2
(g4
S'\xc2\x00'
tRp269
tp270
a(I152
g2
(g4
S'\xd1\x00'
tRp271
tp272
a(I153
g2
(g4
S'\x00\x01'
tRp273
tp274
a(I154
g2
(g4
S'S\x00'
tRp275
tp276
a(I155
g2
(g4
S'\x85\x00'
tRp277
tp278
a(I156
g2
(g4
S'\xa1\x00'
tRp279
tp280
a(I157
g2
(g4
S'\x1b\x00'
tRp281
tp282
a(I158
g121
tp283
a(I159
g2
(g4
S'\x90\x00'
tRp284
tp285
a(I160
g2
(g4
S'\r\x01'
tRp286
tp287
a(I161
g136
tp288
a(I162
g37
tp289
a(I163
g2
(g4
S'\xfb\x00'
tRp290
tp291
a(I164
g2
(g4
S'\xe2\x00'
tRp292
tp293
a(I165
g2
(g4
S'|\x00'
tRp294
tp295
a(I166
g2
(g4
S'\x91\x00'
tRp296
tp297
a(I167
g2
(g4
S'0\x00'
tRp298
tp299
a(I168
g2
(g4
S'\x18\x01'
tRp300
tp301
a(I169
g2
(g4
S'\x02\x01'
tRp302
tp303
a(I170
g2
(g4
S'\xbb\x00'
tRp304
tp305
a(I171
g58
tp306
a(I172
g2
(g4
S'\xa4\x00'
tRp307
tp308
a(I173
g163
tp309
a(I174
g2
(g4
S'\xac\x00'
tRp310
tp311
a(I175
g2
(g4
S' \x00'
tRp312
tp313
a(I176
g2
(g4
S'y\x00'
tRp314
tp315
a(I177
g2
(g4
S'\xbc\x00'
tRp316
tp317
a(I178
g2
(g4
S'}\x00'
tRp318
tp319
a(I179
g167
tp320
a(I180
g2
(g4
S'\x03\x01'
tRp321
tp322
a(I181
g110
tp323
a(I182
g2
(g4
S'L\x00'
tRp324
tp325
a(I183
g2
(g4
S'\xea\x00'
tRp326
tp327
a(I184
g2
(g4
S'\xb0\x00'
tRp328
tp329
a(I185
g2
(g4
S'\xe5\x00'
tRp330
tp331
a(I186
g2
(g4
S'\xf4\x00'
tRp332
tp333
a(I187
g2
(g4
S' \x01'
tRp334
tp335
a(I188
g302
tp336
a(I189
g2
(g4
S'\xc5\x00'
tRp337
tp338
a(I190
g2
(g4
S'\xf8\x00'
tRp339
tp340
a(I191
g86
tp341
a(I192
g2
(g4
S'6\x00'
tRp342
tp343
a(I193
g2
(g4
S'\xbe\x00'
tRp344
tp345
a(I194
g2
(g4
S'\xd9\x00'
tRp346
tp347
a(I195
g2
(g4
S'\x92\x00'
tRp348
tp349
a(I196
g2
(g4
S'\x1a\x01'
tRp350
tp351
a(I197
g2
(g4
S'\xc3\x00'
tRp352
tp353
a(I198
g148
tp354
a(I199
g2
(g4
S'\xa2\x00'
tRp355
tp356
a(I200
g2
(g4
S'\xeb\x00'
tRp357
tp358
a(I201
g2
(g4
S'\xef\x00'
tRp359
tp360
a(I202
g64
tp361
a(I203
g205
tp362
a(I204
g238
tp363
a(I205
g2
(g4
S'\xba\x00'
tRp364
tp365
a(I206
g45
tp366
a(I207
g2
(g4
S'\x08\x01'
tRp367
tp368
a(I208
g2
(g4
S'\xb1\x00'
tRp369
tp370
a(I209
g2
(g4
S'\x0f\x01'
tRp371
tp372
a(I210
g273
tp373
a(I211
g2
(g4
S'\x9b\x00'
tRp374
tp375
a(I212
g2
(g4
S'\x14\x01'
tRp376
tp377
a(I213
g2
(g4
S'\xe6\x00'
tRp378
tp379
a(I214
g71
tp380
a(I215
g339
tp381
a(I216
g2
(g4
S'\x15\x01'
tRp382
tp383
a(I217
g2
(g4
S'\xb4\x00'
tRp384
tp385
a(I218
g2
(g4
S'(\x01'
tRp386
tp387
a(I219
g2
(g4
S'\x81\x00'
tRp388
tp389
a(I220
g277
tp390
a(I221
g2
(g4
S'\xc0\x00'
tRp391
tp392
a(I222
g2
(g4
S'\xbd\x00'
tRp393
tp394
a(I223
g2
(g4
S'\xa6\x00'
tRp395
tp396
a(I224
g2
(g4
S'\xa9\x00'
tRp397
tp398
a(I225
g2
(g4
S'9\x01'
tRp399
tp400
a(I226
g2
(g4
S'\x1f\x01'
tRp401
tp402
a(I227
g2
(g4
S'\xe9\x00'
tRp403
tp404
a(I228
g2
(g4
S'\xa3\x00'
tRp405
tp406
a(I229
g2
(g4
S'\xb7\x00'
tRp407
tp408
a(I230
g2
(g4
S'\xdb\x00'
tRp409
tp410
a(I231
g2
(g4
S'\x97\x00'
tRp411
tp412
a(I232
g2
(g4
S'\x04\x01'
tRp413
tp414
a(I233
g2
(g4
S'#\x01'
tRp415
tp416
a(I234
g300
tp417
a(I235
g2
(g4
S'\xcf\x00'
tRp418
tp419
a(I236
g2
(g4
S'\xae\x00'
tRp420
tp421
a(I237
g2
(g4
S'\xfa\x00'
tRp422
tp423
a(I238
g2
(g4
S'\xca\x00'
tRp424
tp425
a(I239
g2
(g4
S'\xb9\x00'
tRp426
tp427
a(I240
g2
(g4
S'E\x00'
tRp428
tp429
a(I241
g143
tp430
a(I242
g2
(g4
S'\xf1\x00'
tRp431
tp432
a(I243
g2
(g4
S':\x01'
tRp433
tp434
a(I244
g384
tp435
a(I245
g2
(g4
S'\x9c\x00'
tRp436
tp437
a(I246
g2
(g4
S'\x0c\x01'
tRp438
tp439
a(I247
g2
(g4
S'\xb2\x00'
tRp440
tp441
a(I248
g2
(g4
S'1\x01'
tRp442
tp443
a(I249
g2
(g4
S'\xfc\x00'
tRp444
tp445
a(I250
g2
(g4
S'\xa8\x00'
tRp446
tp447
a(I251
g2
(g4
S'\xad\x00'
tRp448
tp449
a(I252
g2
(g4
S'.\x01'
tRp450
tp451
a(I253
g2
(g4
S'\xde\x00'
tRp452
tp453
a(I254
g2
(g4
S'\xe7\x00'
tRp454
tp455
a(I255
g2
(g4
S'%\x01'
tRp456
tp457
a(I256
g2
(g4
S'\x17\x01'
tRp458
tp459
a(I257
g2
(g4
S'\xda\x00'
tRp460
tp461
a(I258
g2
(g4
S'\xf5\x00'
tRp462
tp463
a(I259
g2
(g4
S'\xd3\x00'
tRp464
tp465
a(I260
g2
(g4
S'\xc6\x00'
tRp466
tp467
a(I261
g2
(g4
S'U\x01'
tRp468
tp469
a(I262
g2
(g4
S'\n\x01'
tRp470
tp471
a(I263
g2
(g4
S'\xf9\x00'
tRp472
tp473
a(I264
g2
(g4
S'\xce\x00'
tRp474
tp475
a(I265
g2
(g4
S'\xc8\x00'
tRp476
tp477
a(I266
g2
(g4
S'<\x01'
tRp478
tp479
a(I267
g2
(g4
S'L\x01'
tRp480
tp481
a(I268
g415
tp482
a(I269
g2
(g4
S'M\x01'
tRp483
tp484
a(I270
g2
(g4
S'2\x01'
tRp485
tp486
a(I271
g2
(g4
S'\x10\x01'
tRp487
tp488
a(I272
g2
(g4
S'\xd2\x00'
tRp489
tp490
a(I273
g418
tp491
a(I274
g2
(g4
S'\xf6\x00'
tRp492
tp493
a(I275
g2
(g4
S'\xf7\x00'
tRp494
tp495
a(I276
g2
(g4
S'+\x01'
tRp496
tp497
a(I277
g2
(g4
S'/\x01'
tRp498
tp499
a(I278
g2
(g4
S'\xe3\x00'
tRp500
tp501
a(I279
g2
(g4
S'=\x01'
tRp502
tp503
a(I280
g2
(g4
S'*\x01'
tRp504
tp505
a(I281
g2
(g4
S'\x1e\x01'
tRp506
tp507
a(I282
g2
(g4
S'\x19\x01'
tRp508
tp509
a(I283
g2
(g4
S'\xe4\x00'
tRp510
tp511
a(I284
g2
(g4
S'\xed\x00'
tRp512
tp513
a(I285
g2
(g4
S'Q\x01'
tRp514
tp515
a(I286
g2
(g4
S'\xcd\x00'
tRp516
tp517
a(I287
g2
(g4
S'\x06\x01'
tRp518
tp519
a(I288
g2
(g4
S'J\x01'
tRp520
tp521
a(I289
g2
(g4
S'\xf2\x00'
tRp522
tp523
a(I290
g2
(g4
S'\xd7\x00'
tRp524
tp525
a(I291
g2
(g4
S'?\x01'
tRp526
tp527
a(I292
g487
tp528
a(I293
g2
(g4
S'7\x01'
tRp529
tp530
a(I294
g2
(g4
S'\x13\x01'
tRp531
tp532
a(I295
g2
(g4
S'\x1c\x01'
tRp533
tp534
a(I296
g506
tp535
a(I297
g2
(g4
S'3\x01'
tRp536
tp537
a(I298
g2
(g4
S'G\x01'
tRp538
tp539
a(I299
g2
(g4
S'\xf0\x00'
tRp540
tp541
a(I300
g2
(g4
S'-\x01'
tRp542
tp543
a(I301
g483
tp544
a(I302
g2
(g4
S'4\x01'
tRp545
tp546
a(I303
g2
(g4
S'\xee\x00'
tRp547
tp548
a(I304
g2
(g4
S'W\x01'
tRp549
tp550
a(I305
g2
(g4
S'\xff\x00'
tRp551
tp552
a(I306
g2
(g4
S'\x01\x01'
tRp553
tp554
a(I307
g2
(g4
S'!\x01'
tRp555
tp556
a(I308
g504
tp557
a(I309
g2
(g4
S'\t\x01'
tRp558
tp559
a(I310
g2
(g4
S';\x01'
tRp560
tp561
a(I311
g2
(g4
S'\x12\x01'
tRp562
tp563
a(I312
g2
(g4
S'\x11\x01'
tRp564
tp565
a(I313
g2
(g4
S'\\\x01'
tRp566
tp567
a(I314
g2
(g4
S'A\x01'
tRp568
tp569
a(I315
g2
(g4
S'\x0b\x01'
tRp570
tp571
a(I316
g2
(g4
S'\x07\x01'
tRp572
tp573
a(I317
g2
(g4
S'c\x01'
tRp574
tp575
a(I318
g2
(g4
S'\xfe\x00'
tRp576
tp577
a(I319
g2
(g4
S'\xfd\x00'
tRp578
tp579
a(I320
g2
(g4
S'8\x01'
tRp580
tp581
a(I321
g2
(g4
S'&\x01'
tRp582
tp583
a(I322
g2
(g4
S'g\x01'
tRp584
tp585
a(I323
g2
(g4
S'K\x01'
tRp586
tp587
a(I324
g2
(g4
S'5\x01'
tRp588
tp589
a(I325
g2
(g4
S'[\x01'
tRp590
tp591
a(I326
g2
(g4
S'a\x01'
tRp592
tp593
a(I327
g2
(g4
S'\x05\x01'
tRp594
tp595
a(I328
g2
(g4
S'\x16\x01'
tRp596
tp597
a(I329
g2
(g4
S')\x01'
tRp598
tp599
a(I330
g2
(g4
S'T\x01'
tRp600
tp601
a(I331
g2
(g4
S'O\x01'
tRp602
tp603
a(I332
g2
(g4
S'\x1d\x01'
tRp604
tp605
a(I333
g2
(g4
S'$\x01'
tRp606
tp607
a(I334
g2
(g4
S'0\x01'
tRp608
tp609
a(I335
g2
(g4
S'\x1b\x01'
tRp610
tp611
a(I336
g2
(g4
S',\x01'
tRp612
tp613
a(I337
g2
(g4
S'l\x01'
tRp614
tp615
a(I338
g2
(g4
S'i\x01'
tRp616
tp617
a(I339
g2
(g4
S'X\x01'
tRp618
tp619
a(I340
g2
(g4
S'F\x01'
tRp620
tp621
a(I341
g2
(g4
S'R\x01'
tRp622
tp623
a(I342
g2
(g4
S'"\x01'
tRp624
tp625
a(I343
g574
tp626
a(I344
g2
(g4
S'6\x01'
tRp627
tp628
a(I345
g2
(g4
S'B\x01'
tRp629
tp630
a(I346
g2
(g4
S"'\x01"
tRp631
tp632
a(I347
g2
(g4
S'f\x01'
tRp633
tp634
a(I348
g2
(g4
S'D\x01'
tRp635
tp636
a(I349
g586
tp637
a(I350
g2
(g4
S'o\x01'
tRp638
tp639
a(I351
g2
(g4
S'r\x01'
tRp640
tp641
a(I352
g2
(g4
S's\x01'
tRp642
tp643
a(I353
g2
(g4
S'I\x01'
tRp644
tp645
a(I354
g2
(g4
S'`\x01'
tRp646
tp647
a(I355
g2
(g4
S'V\x01'
tRp648
tp649
a(I356
g2
(g4
S'h\x01'
tRp650
tp651
a(I357
g2
(g4
S'C\x01'
tRp652
tp653
a(I358
g2
(g4
S'@\x01'
tRp654
tp655
a(I359
g2
(g4
S'Y\x01'
tRp656
tp657
a(I360
g2
(g4
S'S\x01'
tRp658
tp659
a(I361
g2
(g4
S'E\x01'
tRp660
tp661
a(I362
g2
(g4
S'n\x01'
tRp662
tp663
a(I363
g2
(g4
S'z\x01'
tRp664
tp665
a(I364
g2
(g4
S'H\x01'
tRp666
tp667
a(I365
g2
(g4
S'e\x01'
tRp668
tp669
a(I366
g2
(g4
S't\x01'
tRp670
tp671
a(I367
g2
(g4
S'Z\x01'
tRp672
tp673
a(I368
g2
(g4
S'x\x01'
tRp674
tp675
a(I369
g2
(g4
S'{\x01'
tRp676
tp677
a(I370
g2
(g4
S'N\x01'
tRp678
tp679
a(I371
g2
(g4
S'y\x01'
tRp680
tp681
a(I372
g2
(g4
S'_\x01'
tRp682
tp683
a(I373
g2
(g4
S'k\x01'
tRp684
tp685
a(I374
g2
(g4
S'P\x01'
tRp686
tp687
a(I375
g2
(g4
S'd\x01'
tRp688
tp689
a(I376
g2
(g4
S'}\x01'
tRp690
tp691
a(I377
g2
(g4
S'^\x01'
tRp692
tp693
a(I378
g2
(g4
S'v\x01'
tRp694
tp695
a(I379
g2
(g4
S'q\x01'
tRp696
tp697
a(I380
g2
(g4
S']\x01'
tRp698
tp699
a(I381
g2
(g4
S'j\x01'
tRp700
tp701
a(I382
g2
(g4
S'\x7f\x01'
tRp702
tp703
a(I383
g2
(g4
S'b\x01'
tRp704
tp705
a(I384
g2
(g4
S'm\x01'
tRp706
tp707
a(I385
g2
(g4
S'\x82\x01'
tRp708
tp709
a(I386
g684
tp710
a(I387
g680
tp711
a(I388
g2
(g4
S'u\x01'
tRp712
tp713
a(I389
g2
(g4
S'\x83\x01'
tRp714
tp715
a(I390
g2
(g4
S'p\x01'
tRp716
tp717
a(I391
g2
(g4
S'\x81\x01'
tRp718
tp719
a(I392
g2
(g4
S'w\x01'
tRp720
tp721
a(I393
g2
(g4
S'\x80\x01'
tRp722
tp723
a(I394
g2
(g4
S'~\x01'
tRp724
tp725
a(I395
g2
(g4
S'|\x01'
tRp726
tp727
a(I396
g726
tp728
a(lp729
g2
(g3
(S'f4'
I0
I1
tRp730
(I3
S'<'
NNNI-1
I-1
I0
tbS'\xc4\xf1U?'
tRp731
ag2
(g730
S'\xbf\x91 ?'
tRp732
ag2
(g730
S'$\xedV;'
tRp733
ag2
(g730
S'hb\xb7>'
tRp734
ag2
(g730
S'}\x84f?'
tRp735
ag2
(g730
S'Lue?'
tRp736
ag2
(g730
S"'|R;"
tRp737
ag2
(g730
S'e\x17j?'
tRp738
ag2
(g730
S'\n\x97^?'
tRp739
ag2
(g730
S'\x86\xa9l?'
tRp740
ag2
(g730
S'd\xafe?'
tRp741
ag2
(g730
S'\xde\xe3q?'
tRp742
ag2
(g730
S'-\xec;?'
tRp743
ag2
(g730
S'\xdd\xbe\x00?'
tRp744
ag2
(g730
S'\xf2\x94\xcb9'
tRp745
ag2
(g730
S'\xc6U\r:'
tRp746
ag2
(g730
S'[Xi?'
tRp747
ag2
(g730
S'\x94w\n?'
tRp748
ag2
(g730
S'iVd?'
tRp749
ag2
(g730
S'\x90\xcd\xeb='
tRp750
ag2
(g730
S'\x84\xbbn?'
tRp751
ag2
(g730
S'\xc7l\xaf='
tRp752
ag2
(g730
S'\xe5\\j?'
tRp753
ag2
(g730
S'\x9d~\x97>'
tRp754
ag2
(g730
S'-\xf7%:'
tRp755
ag2
(g730
S'\xb6\x02V?'
tRp756
ag2
(g730
S'\tTK?'
tRp757
ag2
(g730
S'\xb2\xadr?'
tRp758
ag2
(g730
S'\xdf\x88\xeb9'
tRp759
ag2
(g730
S'U\x8d\x97>'
tRp760
ag2
(g730
S'\xbd\xfe\x9d>'
tRp761
ag2
(g730
S'"\xa4n:'
tRp762
ag2
(g730
S'\tDn?'
tRp763
ag2
(g730
S'\xcf\xec\x14?'
tRp764
ag2
(g730
S'\xe7=Z:'
tRp765
ag2
(g730
S'\x9cIn?'
tRp766
ag2
(g730
S'\xf5\x1a\x84>'
tRp767
ag2
(g730
S'i"1>'
tRp768
ag2
(g730
S'T\xfcj?'
tRp769
ag2
(g730
S'\xd6\xfa\x819'
tRp770
ag2
(g730
S'19@?'
tRp771
ag2
(g730
S'fio?'
tRp772
ag2
(g730
S'\x9f\xd8^>'
tRp773
ag2
(g730
S'\xbf\xe3#?'
tRp774
ag2
(g730
S'\xd9\xe2\x9d='
tRp775
ag2
(g730
S'\xd2\xb5j?'
tRp776
ag2
(g730
S'-<\x9b>'
tRp777
ag2
(g730
S'\xfdA\x0f?'
tRp778
ag2
(g730
S'9\xc1\x0b:'
tRp779
ag2
(g730
S'\xdc\\\x97>'
tRp780
ag2
(g730
S'\xb2\xa7\xf4>'
tRp781
ag2
(g730
S'\x87\xff\xf6>'
tRp782
ag2
(g730
S'%\x87k?'
tRp783
ag2
(g730
S'\xee\xd8n?'
tRp784
ag2
(g730
S'_9\\?'
tRp785
ag2
(g730
S'\xe8\xe1\x9d9'
tRp786
ag2
(g730
S'\x1c\xf3!9'
tRp787
ag2
(g730
S'\x83\xef\xe2>'
tRp788
ag2
(g730
S'\x00\x9b\x01>'
tRp789
ag2
(g730
S'\xa6b\xb4;'
tRp790
ag2
(g730
S'\x9e\x8aB>'
tRp791
ag2
(g730
S'\xa0<#?'
tRp792
ag2
(g730
S',\x91S?'
tRp793
ag2
(g730
S'l\xaef9'
tRp794
ag2
(g730
S'g\xe2\x05?'
tRp795
ag2
(g730
S'\xb4\xdd\xcf<'
tRp796
ag2
(g730
S'\xd2M\x05?'
tRp797
ag2
(g730
S'\x7f\xa2\x01;'
tRp798
ag2
(g730
S'\xc6\x1dM?'
tRp799
ag2
(g730
S'\x11\xed.?'
tRp800
ag2
(g730
S'\xdc\x87\xc4:'
tRp801
ag2
(g730
S'\\\xaa\x12?'
tRp802
ag2
(g730
S'8\xb1\x11?'
tRp803
ag2
(g730
S'\xd6a\x9e>'
tRp804
ag2
(g730
S'\xbb\xd3S?'
tRp805
ag2
(g730
S'\xab2\xd49'
tRp806
ag2
(g730
S'\xf7\xdcU?'
tRp807
ag2
(g730
S'P\x1c$:'
tRp808
ag2
(g730
S'b\xffd?'
tRp809
ag2
(g730
S'\x85I\x03?'
tRp810
ag2
(g730
S'\x86\xa6"?'
tRp811
ag2
(g730
S'v7W?'
tRp812
ag2
(g730
S'~I!<'
tRp813
ag2
(g730
S'\xd9Jl?'
tRp814
ag2
(g730
S'\xa3\rn?'
tRp815
ag2
(g730
S'\xd2L\x07?'
tRp816
ag2
(g730
S'_\x90f?'
tRp817
ag2
(g730
S'o\x9a\xa89'
tRp818
ag2
(g730
S'r\x8dm?'
tRp819
ag2
(g730
S'I\x8df?'
tRp820
ag2
(g730
S'\xaf\xd5 ?'
tRp821
ag2
(g730
S'\xf1\x14^?'
tRp822
ag2
(g730
S'\xf2\x02\x18='
tRp823
ag2
(g730
S'b\x90l?'
tRp824
ag2
(g730
S'\xac\x89T?'
tRp825
ag2
(g730
S']%Q?'
tRp826
ag2
(g730
S'\xbfk1?'
tRp827
ag2
(g730
S'\xea\xa1\x8c9'
tRp828
ag2
(g730
S'h%o?'
tRp829
ag2
(g730
S'\xab\x9al?'
tRp830
ag2
(g730
S'\xd0Ap?'
tRp831
ag2
(g730
S'\x12\xabo?'
tRp832
ag2
(g730
S'\x8a\xb2N;'
tRp833
ag2
(g730
S'*\x12e?'
tRp834
ag2
(g730
S'oei?'
tRp835
ag2
(g730
S'\xc1\xbbk?'
tRp836
ag2
(g730
S'\xf8\x13j?'
tRp837
ag2
(g730
S'mq\xa9>'
tRp838
ag2
(g730
S'hkQ;'
tRp839
ag2
(g730
S'\xdb\xbbe?'
tRp840
ag2
(g730
S'S=7?'
tRp841
ag2
(g730
S'/\xca\x0e;'
tRp842
ag2
(g730
S'\xd3\xb4\x12?'
tRp843
ag2
(g730
S'o2Y?'
tRp844
ag2
(g730
S'\xc8\x10e?'
tRp845
ag2
(g730
S'\xba\x92I?'
tRp846
ag2
(g730
S'4c\x84>'
tRp847
ag2
(g730
S'R\xda\x8d>'
tRp848
ag2
(g730
S'\x82\x0cK?'
tRp849
ag2
(g730
S'\xb4"R?'
tRp850
ag2
(g730
S'Q\xb9j?'
tRp851
ag2
(g730
S'\xafWp?'
tRp852
ag2
(g730
S'\xd0Gm?'
tRp853
ag2
(g730
S'\xf74p?'
tRp854
ag2
(g730
S'A"m?'
tRp855
ag2
(g730
S'5\x9b\x01?'
tRp856
ag2
(g730
S'\xac\xd6M?'
tRp857
ag2
(g730
S'Po@?'
tRp858
ag2
(g730
S'\xd9\xbck?'
tRp859
ag2
(g730
S';Am?'
tRp860
ag2
(g730
S'\xa9\x90\x9f;'
tRp861
ag2
(g730
S'\xbf.Y?'
tRp862
ag2
(g730
S'\xfa\xa7\xad>'
tRp863
ag2
(g730
S'=+p?'
tRp864
ag2
(g730
S'\xa8\x11D?'
tRp865
ag2
(g730
S'\xf7\xae\xa7='
tRp866
ag2
(g730
S'\x1bTn?'
tRp867
ag2
(g730
S'\xa84C?'
tRp868
ag2
(g730
S'I\x00h?'
tRp869
ag2
(g730
S'Z\xd2\xb6>'
tRp870
ag2
(g730
S'\xaf\xe3&?'
tRp871
ag2
(g730
S'\xb7\x9e_?'
tRp872
ag2
(g730
S'\x9aZl?'
tRp873
ag2
(g730
S'\xdeG\x08?'
tRp874
ag2
(g730
S'b\\&?'
tRp875
ag2
(g730
S'\xa4\xdd"?'
tRp876
ag2
(g730
S':\x95p?'
tRp877
ag2
(g730
S'\n?S>'
tRp878
ag2
(g730
S'\x1bo\r?'
tRp879
ag2
(g730
S'\x01\xf7m?'
tRp880
ag2
(g730
S'Q\x86a?'
tRp881
ag2
(g730
S'E\x08B?'
tRp882
ag2
(g730
S'\x0c\xa4\x16?'
tRp883
ag2
(g730
S'\xdb\x81\xb9>'
tRp884
ag2
(g730
S'\xc0\xafm?'
tRp885
ag2
(g730
S'w\x17[?'
tRp886
ag2
(g730
S':\xfeJ?'
tRp887
ag2
(g730
S'SGm?'
tRp888
ag2
(g730
S'mDi?'
tRp889
ag2
(g730
S'\x9e\xf9k?'
tRp890
ag2
(g730
S'0l\x0f?'
tRp891
ag2
(g730
S'\x1d\xc1m?'
tRp892
ag2
(g730
S'\xaa\xc1b?'
tRp893
ag2
(g730
S'Q\x8d[?'
tRp894
ag2
(g730
S'\xb3:e?'
tRp895
ag2
(g730
S'\xac\xedX?'
tRp896
ag2
(g730
S'\xf2\xe47?'
tRp897
ag2
(g730
S'l\xea\x17?'
tRp898
ag2
(g730
S'\x9d\xecl?'
tRp899
ag2
(g730
S"'@\x9f>"
tRp900
ag2
(g730
S'\x1eUn?'
tRp901
ag2
(g730
S'\xb7z\x1e?'
tRp902
ag2
(g730
S'W\x84k?'
tRp903
ag2
(g730
S'\xb3\x17.?'
tRp904
ag2
(g730
S'\xadce?'
tRp905
ag2
(g730
S'\xbe\x05m?'
tRp906
ag2
(g730
S'\x91\xa0m?'
tRp907
ag2
(g730
S'\xbeYq?'
tRp908
ag2
(g730
S'H\xc4o?'
tRp909
ag2
(g730
S'M\xabY?'
tRp910
ag2
(g730
S'\xd9\x12%?'
tRp911
ag2
(g730
S'\xc4\xf8q?'
tRp912
ag2
(g730
S'\xa8tn?'
tRp913
ag2
(g730
S"'\to?"
tRp914
ag2
(g730
S'\xd4nh?'
tRp915
ag2
(g730
S'd\xa2m?'
tRp916
ag2
(g730
S'\xab\xe1\x1a?'
tRp917
ag2
(g730
S'P\x08m?'
tRp918
ag2
(g730
S'r*\xe2>'
tRp919
ag2
(g730
S'\xbb\x15\xcc>'
tRp920
ag2
(g730
S'A\x06??'
tRp921
ag2
(g730
S'9?i?'
tRp922
ag2
(g730
S'\xb4\xe4m?'
tRp923
ag2
(g730
S'\xdf\x0ek?'
tRp924
ag2
(g730
S'\xe4\xf2r?'
tRp925
ag2
(g730
S'>\xadj?'
tRp926
ag2
(g730
S'u\x04g?'
tRp927
ag2
(g730
S'\xeb\xaas?'
tRp928
ag2
(g730
S'\xa5\rk?'
tRp929
ag2
(g730
S'\x9c\x9bn?'
tRp930
ag2
(g730
S'\x84\xa4#?'
tRp931
ag2
(g730
S'\x08\xda\x1b?'
tRp932
ag2
(g730
S'\xa7\xd4b?'
tRp933
ag2
(g730
S'm\xd2n?'
tRp934
ag2
(g730
S'$;m?'
tRp935
ag2
(g730
S'\xca\xcfn?'
tRp936
ag2
(g730
S'1Xo?'
tRp937
ag2
(g730
S'X\xc2h?'
tRp938
ag2
(g730
S'\xa0\x87\xc4>'
tRp939
ag2
(g730
S'\xf9\x8ft?'
tRp940
ag2
(g730
S'{\xdbl?'
tRp941
ag2
(g730
S'Bbm?'
tRp942
ag2
(g730
S'\x11x\x14>'
tRp943
ag2
(g730
S'[\xef8?'
tRp944
ag2
(g730
S'\x8a7p?'
tRp945
ag2
(g730
S'\x99D\t?'
tRp946
ag2
(g730
S'|\xffm?'
tRp947
ag2
(g730
S'\xab\x01\xc3>'
tRp948
ag2
(g730
S'\xda\xa5\xa9>'
tRp949
ag2
(g730
S'L\xf7j?'
tRp950
ag2
(g730
S'\xa8\xd2m?'
tRp951
ag2
(g730
S'\xf3\xbcr?'
tRp952
ag2
(g730
S'\xb9\xfep?'
tRp953
ag2
(g730
S'\xa4-j?'
tRp954
ag2
(g730
S'E\xfer?'
tRp955
ag2
(g730
S'L\ti?'
tRp956
ag2
(g730
S']\tp?'
tRp957
ag2
(g730
S'\xd4yp?'
tRp958
ag2
(g730
S'\xe2Em?'
tRp959
ag2
(g730
S'>\x19q?'
tRp960
ag2
(g730
S'g\xe2k?'
tRp961
ag2
(g730
S'\x8f\x14\x19?'
tRp962
ag2
(g730
S'\x81\x15\xd8>'
tRp963
ag2
(g730
S"'\xb6\x0e?"
tRp964
ag2
(g730
S'\x17\xe9r?'
tRp965
ag2
(g730
S'\xc8\x84`?'
tRp966
ag2
(g730
S'\x84\x10h?'
tRp967
ag2
(g730
S'\xdbvp?'
tRp968
ag2
(g730
S'\xf3\x83\xcc>'
tRp969
ag2
(g730
S'\xa1,\x05?'
tRp970
ag2
(g730
S'^[`?'
tRp971
ag2
(g730
S'\x0f\x04k?'
tRp972
ag2
(g730
S'R\xea(?'
tRp973
ag2
(g730
S'\x1b\x19q?'
tRp974
ag2
(g730
S'\x18Mo?'
tRp975
ag2
(g730
S'\xac\x16r?'
tRp976
ag2
(g730
S'\xbdjk?'
tRp977
ag2
(g730
S'%Bo?'
tRp978
ag2
(g730
S'"\x92s?'
tRp979
ag2
(g730
S'3\xc5n?'
tRp980
ag2
(g730
S'\x83\xcai?'
tRp981
ag2
(g730
S'>\x99o?'
tRp982
ag2
(g730
S'}\x90o?'
tRp983
ag2
(g730
S'\xe7\xcan?'
tRp984
ag2
(g730
S'\x0etj?'
tRp985
ag2
(g730
S'\x94\x07l?'
tRp986
ag2
(g730
S'\xfc#o?'
tRp987
ag2
(g730
S'\xb5\x93q?'
tRp988
ag2
(g730
S's\xbes?'
tRp989
ag2
(g730
S'z\x9eg?'
tRp990
ag2
(g730
S'P\xd7p?'
tRp991
ag2
(g730
S'\ryl?'
tRp992
ag2
(g730
S'[\xb1t?'
tRp993
ag2
(g730
S'\xe5\xb4m?'
tRp994
ag2
(g730
S'\xee\xe9k?'
tRp995
ag2
(g730
S'\xe4=p?'
tRp996
ag2
(g730
S'\xdf\x16\x16?'
tRp997
ag2
(g730
S'O\x8c=?'
tRp998
ag2
(g730
S'j\x05m?'
tRp999
ag2
(g730
S'\xef\x00\x11?'
tRp1000
ag2
(g730
S'%%s?'
tRp1001
ag2
(g730
S'\xd5\xc2\x19?'
tRp1002
ag2
(g730
S'\xb2\x83l?'
tRp1003
ag2
(g730
S'*\xd9o?'
tRp1004
ag2
(g730
S'C\x8cl?'
tRp1005
ag2
(g730
S'\xfe\xd6p?'
tRp1006
ag2
(g730
S'ZPq?'
tRp1007
ag2
(g730
S'F,p?'
tRp1008
ag2
(g730
S']\x88<?'
tRp1009
ag2
(g730
S'=8H?'
tRp1010
ag2
(g730
S'\xd2-k?'
tRp1011
ag2
(g730
S"\x90'o?"
tRp1012
ag2
(g730
S'\xa0~o?'
tRp1013
ag2
(g730
S'D\x81q?'
tRp1014
ag2
(g730
S'`\xebq?'
tRp1015
ag2
(g730
S'\xaa\xe7p?'
tRp1016
ag2
(g730
S'\x93dq?'
tRp1017
ag2
(g730
S'\xd40n?'
tRp1018
ag2
(g730
S'\xdftq?'
tRp1019
ag2
(g730
S'\xd9\xc0o?'
tRp1020
ag2
(g730
S'\xbd\x8c\x19?'
tRp1021
ag2
(g730
S'\x16\x8dq?'
tRp1022
ag2
(g730
S'\xd4/n?'
tRp1023
ag2
(g730
S'CAl?'
tRp1024
ag2
(g730
S' \xb1\xb6>'
tRp1025
ag2
(g730
S'05m?'
tRp1026
ag2
(g730
S'Z\xb0n?'
tRp1027
ag2
(g730
S'8rq?'
tRp1028
ag2
(g730
S'7\x88n?'
tRp1029
ag2
(g730
S'\xe1\x13\xd8>'
tRp1030
ag2
(g730
S'\xc0\xfco?'
tRp1031
ag2
(g730
S'Peo?'
tRp1032
ag2
(g730
S'\xf6\xebm?'
tRp1033
ag2
(g730
S'\x84\x01n?'
tRp1034
ag2
(g730
S'\xce[r?'
tRp1035
ag2
(g730
S'\x80Xq?'
tRp1036
ag2
(g730
S'Pz\xed>'
tRp1037
ag2
(g730
S'+\xf4m?'
tRp1038
ag2
(g730
S'\x95\xacn?'
tRp1039
ag2
(g730
S'\xf3\xa7p?'
tRp1040
ag2
(g730
S'\xaf\xefn?'
tRp1041
ag2
(g730
S'\x91\xc1m?'
tRp1042
ag2
(g730
S'\xfb\xf3p?'
tRp1043
ag2
(g730
S'L\xa2n?'
tRp1044
ag2
(g730
S'7\x0cp?'
tRp1045
ag2
(g730
S'\x93\x81\x19?'
tRp1046
ag2
(g730
S'\xe7\x8eo?'
tRp1047
ag2
(g730
S'\xdf\x03j?'
tRp1048
ag2
(g730
S'\x03\xe3n?'
tRp1049
ag2
(g730
S'\x86\x8cm?'
tRp1050
ag2
(g730
S'\x01\x05j?'
tRp1051
ag2
(g730
S'\x08\xf2(?'
tRp1052
ag2
(g730
S'\xaf\xc2o?'
tRp1053
ag2
(g730
S'$xp?'
tRp1054
ag2
(g730
S'?Jp?'
tRp1055
ag2
(g730
S'\x95\xcbr?'
tRp1056
ag2
(g730
S'C\xd2p?'
tRp1057
ag2
(g730
S'j\x1ar?'
tRp1058
ag2
(g730
S'\x98\xd2m?'
tRp1059
ag2
(g730
S'\x89\xf5l?'
tRp1060
ag2
(g730
S'\xd9\x94m?'
tRp1061
ag2
(g730
S'\xbdjq?'
tRp1062
ag2
(g730
S'\xb4\x17q?'
tRp1063
ag2
(g730
S'6Ut?'
tRp1064
ag2
(g730
S'Y\x94r?'
tRp1065
ag2
(g730
S'\x92\x9co?'
tRp1066
ag2
(g730
S'\x148o?'
tRp1067
ag2
(g730
S'\x96qs?'
tRp1068
ag2
(g730
S'\xd7\xddn?'
tRp1069
ag2
(g730
S'\xe0\xd6o?'
tRp1070
ag2
(g730
S'\x85\xb3q?'
tRp1071
ag2
(g730
S'"=#?'
tRp1072
ag2
(g730
S',\xeer?'
tRp1073
ag2
(g730
S'\xe3\xf3o?'
tRp1074
ag2
(g730
S'\x89\xf7q?'
tRp1075
ag2
(g730
S'i\xe2s?'
tRp1076
ag2
(g730
S'\xfa\x12q?'
tRp1077
ag2
(g730
S'P8\x13?'
tRp1078
ag2
(g730
S'\xd5\xe8r?'
tRp1079
ag2
(g730
S'r\x7fq?'
tRp1080
ag2
(g730
S'\xfb\xffq?'
tRp1081
ag2
(g730
S'\x16\xb5o?'
tRp1082
ag2
(g730
S'\x83\xe2r?'
tRp1083
ag2
(g730
S'>&p?'
tRp1084
ag2
(g730
S'P<o?'
tRp1085
ag2
(g730
S'\xca\xc2r?'
tRp1086
ag2
(g730
S'i\x9cq?'
tRp1087
ag2
(g730
S'\x92\xd2t?'
tRp1088
ag2
(g730
S'-\xf5p?'
tRp1089
ag2
(g730
S'\x81\x86r?'
tRp1090
ag2
(g730
S',\xcdr?'
tRp1091
ag2
(g730
S'\r;p?'
tRp1092
ag2
(g730
S'\xb2\xefs?'
tRp1093
ag2
(g730
S'\xd7\xcfs?'
tRp1094
ag2
(g730
S'\xda:s?'
tRp1095
ag2
(g730
S'$\x7fq?'
tRp1096
ag2
(g730
S'(\xecq?'
tRp1097
ag2
(g730
S'\xc8gp?'
tRp1098
ag2
(g730
S'\xd3\xffs?'
tRp1099
ag2
(g730
S'W(/?'
tRp1100
ag2
(g730
S'\xc7\xaer?'
tRp1101
ag2
(g730
S'\xc9h/?'
tRp1102
ag2
(g730
S'\xdc\xa3r?'
tRp1103
ag2
(g730
S'\x95Mo?'
tRp1104
ag2
(g730
S'\xa1\x89o?'
tRp1105
ag2
(g730
S'C)p?'
tRp1106
ag2
(g730
S'\xf3us?'
tRp1107
ag2
(g730
S'\x17\xa6s?'
tRp1108
ag2
(g730
S'P\x19t?'
tRp1109
ag2
(g730
S'\n\x16s?'
tRp1110
ag2
(g730
S'f1p?'
tRp1111
ag2
(g730
S'\x01\xe0r?'
tRp1112
ag2
(g730
S'\x7fKs?'
tRp1113
ag2
(g730
S'`%t?'
tRp1114
ag2
(g730
S'> \x04?'
tRp1115
ag2
(g730
S'\xa9\xcf\x08?'
tRp1116
ag2
(g730
S'tfq?'
tRp1117
ag2
(g730
S'\xcaJo?'
tRp1118
ag2
(g730
S'\xa3\xa3t?'
tRp1119
ag2
(g730
S'\xeb\xb9r?'
tRp1120
ag2
(g730
S'\xdd\xa6m?'
tRp1121
ag2
(g730
S'n\xbbq?'
tRp1122
ag2
(g730
S'\x02\x95s?'
tRp1123
ag2
(g730
S'\xcb\x1b5?'
tRp1124
ag2
(g730
S')V\x06?'
tRp1125
at.