((lp1
(I2
cnumpy.core.multiarray
scalar
p2
(cnumpy
dtype
p3
(S'u2'
I0
I1
tRp4
(I3
S'<'
NNNI-1
I-1
I0
tbS'\n\x00'
tRp5
tp6
a(I3
g5
tp7
a(I4
g2
(g4
S'\xbc\x00'
tRp8
tp9
a(I5
g2
(g4
S'\xf3\x00'
tRp10
tp11
a(I6
g2
(g4
S'\xb6\x00'
tRp12
tp13
a(I7
g2
(g4
S'\xb8\x00'
tRp14
tp15
a(I8
g2
(g4
S'\xb2\x00'
tRp16
tp17
a(I9
g2
(g4
S'\xc0\x00'
tRp18
tp19
a(I10
g2
(g4
S'\x12\x00'
tRp20
tp21
a(I11
g2
(g4
S'\xb9\x00'
tRp22
tp23
a(I12
g18
tp24
a(I13
g2
(g4
S'\x06\x01'
tRp25
tp26
a(I14
g2
(g4
S'\xaa\x00'
tRp27
tp28
a(I15
g2
(g4
S'\xca\x00'
tRp29
tp30
a(I16
g2
(g4
S'\xc1\x00'
tRp31
tp32
a(I17
g2
(g4
S'\xc3\x00'
tRp33
tp34
a(I18
g2
(g4
S'\xae\x00'
tRp35
tp36
a(I19
g2
(g4
S'\xbd\x00'
tRp37
tp38
a(I20
g2
(g4
S'\xc4\x00'
tRp39
tp40
a(I21
g2
(g4
S'$\x00'
tRp41
tp42
a(I22
g2
(g4
S'"\x00'
tRp43
tp44
a(I23
g2
(g4
S'\xba\x00'
tRp45
tp46
a(I24
g2
(g4
S'&\x00'
tRp47
tp48
a(I25
g2
(g4
S'\xa4\x00'
tRp49
tp50
a(I26
g2
(g4
S'(\x00'
tRp51
tp52
a(I27
g2
(g4
S'+\x00'
tRp53
tp54
a(I28
g2
(g4
S'\x9c\x00'
tRp55
tp56
a(I29
g2
(g4
S'*\x00'
tRp57
tp58
a(I30
g2
(g4
S"'\x00"
tRp59
tp60
a(I31
g2
(g4
S'\x00\x01'
tRp61
tp62
a(I32
g2
(g4
S'/\x00'
tRp63
tp64
a(I33
g2
(g4
S'1\x00'
tRp65
tp66
a(I34
g2
(g4
S'\xd0\x00'
tRp67
tp68
a(I35
g2
(g4
S'\xd9\x00'
tRp69
tp70
a(I36
g2
(g4
S'\xe3\x00'
tRp71
tp72
a(I37
g2
(g4
S'2\x00'
tRp73
tp74
a(I38
g2
(g4
S'\xe1\x00'
tRp75
tp76
a(I39
g2
(g4
S'8\x00'
tRp77
tp78
a(I40
g2
(g4
S'\xd5\x00'
tRp79
tp80
a(I41
g2
(g4
S'\xe2\x00'
tRp81
tp82
a(I42
g2
(g4
S'\xda\x00'
tRp83
tp84
a(I43
g2
(g4
S';\x00'
tRp85
tp86
a(I44
g2
(g4
S'3\x00'
tRp87
tp88
a(I45
g2
(g4
S'\x01\x01'
tRp89
tp90
a(I46
g2
(g4
S'\xaf\x00'
tRp91
tp92
a(I47
g2
(g4
S'4\x00'
tRp93
tp94
a(I48
g2
(g4
S'\xab\x00'
tRp95
tp96
a(I49
g2
(g4
S'B\x00'
tRp97
tp98
a(I50
g2
(g4
S'\xb5\x00'
tRp99
tp100
a(I51
g2
(g4
S'E\x00'
tRp101
tp102
a(I52
g2
(g4
S'\xbb\x00'
tRp103
tp104
a(I53
g2
(g4
S'\xc5\x00'
tRp105
tp106
a(I54
g2
(g4
S'\x9a\x00'
tRp107
tp108
a(I55
g2
(g4
S'\xf7\x00'
tRp109
tp110
a(I56
g2
(g4
S'C\x00'
tRp111
tp112
a(I57
g2
(g4
S'\xa1\x00'
tRp113
tp114
a(I58
g2
(g4
S'\xea\x00'
tRp115
tp116
a(I59
g2
(g4
S'\xd1\x00'
tRp117
tp118
a(I60
g2
(g4
S'K\x00'
tRp119
tp120
a(I61
g2
(g4
S'=\x00'
tRp121
tp122
a(I62
g2
(g4
S'M\x00'
tRp123
tp124
a(I63
g2
(g4
S'T\x00'
tRp125
tp126
a(I64
g2
(g4
S'F\x00'
tRp127
tp128
a(I65
g2
(g4
S'U\x00'
tRp129
tp130
a(I66
g2
(g4
S'Q\x00'
tRp131
tp132
a(I67
g2
(g4
S'N\x00'
tRp133
tp134
a(I68
g2
(g4
S'L\x00'
tRp135
tp136
a(I69
g2
(g4
S'\xdd\x00'
tRp137
tp138
a(I70
g2
(g4
S'V\x00'
tRp139
tp140
a(I71
g2
(g4
S'\xeb\x00'
tRp141
tp142
a(I72
g2
(g4
S')\x01'
tRp143
tp144
a(I73
g2
(g4
S'O\x00'
tRp145
tp146
a(I74
g2
(g4
S'Z\x00'
tRp147
tp148
a(I75
g2
(g4
S'\xcb\x00'
tRp149
tp150
a(I76
g2
(g4
S'a\x00'
tRp151
tp152
a(I77
g2
(g4
S'_\x00'
tRp153
tp154
a(I78
g2
(g4
S'e\x00'
tRp155
tp156
a(I79
g2
(g4
S'\x9b\x00'
tRp157
tp158
a(I80
g137
tp159
a(I81
g2
(g4
S'h\x00'
tRp160
tp161
a(I82
g2
(g4
S'\xe7\x00'
tRp162
tp163
a(I83
g2
(g4
S'i\x00'
tRp164
tp165
a(I84
g2
(g4
S']\x00'
tRp166
tp167
a(I85
g2
(g4
S'b\x00'
tRp168
tp169
a(I86
g2
(g4
S'W\x00'
tRp170
tp171
a(I87
g2
(g4
S'g\x00'
tRp172
tp173
a(I88
g2
(g4
S'n\x00'
tRp174
tp175
a(I89
g2
(g4
S'k\x00'
tRp176
tp177
a(I90
g2
(g4
S'\xc7\x00'
tRp178
tp179
a(I91
g2
(g4
S'\x03\x01'
tRp180
tp181
a(I92
g160
tp182
a(I93
g2
(g4
S't\x00'
tRp183
tp184
a(I94
g2
(g4
S'!\x01'
tRp185
tp186
a(I95
g2
(g4
S'\xa5\x00'
tRp187
tp188
a(I96
g2
(g4
S'r\x00'
tRp189
tp190
a(I97
g2
(g4
S'\xfa\x00'
tRp191
tp192
a(I98
g160
tp193
a(I99
g2
(g4
S'u\x00'
tRp194
tp195
a(I100
g2
(g4
S'q\x00'
tRp196
tp197
a(I101
g2
(g4
S'\xa6\x00'
tRp198
tp199
a(I102
g160
tp200
a(I103
g2
(g4
S'z\x00'
tRp201
tp202
a(I104
g2
(g4
S'\x1f\x01'
tRp203
tp204
a(I105
g2
(g4
S'p\x00'
tRp205
tp206
a(I106
g2
(g4
S'y\x00'
tRp207
tp208
a(I107
g2
(g4
S'x\x00'
tRp209
tp210
a(I108
g2
(g4
S'}\x00'
tRp211
tp212
a(I109
g2
(g4
S'v\x00'
tRp213
tp214
a(I110
g160
tp215
a(I111
g2
(g4
S'|\x00'
tRp216
tp217
a(I112
g2
(g4
S'{\x00'
tRp218
tp219
a(I113
g2
(g4
S'\xa2\x00'
tRp220
tp221
a(I114
g2
(g4
S'\x7f\x00'
tRp222
tp223
a(I115
g2
(g4
S'\x83\x00'
tRp224
tp225
a(I116
g213
tp226
a(I117
g209
tp227
a(I118
g2
(g4
S'\xb4\x00'
tRp228
tp229
a(I119
g160
tp230
a(I120
g2
(g4
S'\xb0\x00'
tRp231
tp232
a(I121
g2
(g4
S'\xa8\x00'
tRp233
tp234
a(I122
g2
(g4
S'\xcf\x00'
tRp235
tp236
a(I123
g2
(g4
S'\x8b\x00'
tRp237
tp238
a(I124
g2
(g4
S'\xad\x00'
tRp239
tp240
a(I125
g2
(g4
S'\xb1\x00'
tRp241
tp242
a(I126
g2
(g4
S'\x90\x00'
tRp243
tp244
a(I127
g2
(g4
S'\x89\x00'
tRp245
tp246
a(I128
g2
(g4
S'\x92\x00'
tRp247
tp248
a(I129
g2
(g4
S'\x8d\x00'
tRp249
tp250
a(I130
g2
(g4
S'\x91\x00'
tRp251
tp252
a(I131
g2
(g4
S'\x8c\x00'
tRp253
tp254
a(I132
g2
(g4
S'b\x01'
tRp255
tp256
a(I133
g2
(g4
S'\xf1\x00'
tRp257
tp258
a(I134
g2
(g4
S'\xd7\x00'
tRp259
tp260
a(I135
g2
(g4
S'\x8e\x00'
tRp261
tp262
a(I136
g2
(g4
S'\xec\x00'
tRp263
tp264
a(I137
g2
(g4
S'\xa3\x00'
tRp265
tp266
a(I138
g2
(g4
S'\x96\x00'
tRp267
tp268
a(I139
g2
(g4
S'\x99\x00'
tRp269
tp270
a(I140
g2
(g4
S'\xac\x00'
tRp271
tp272
a(I141
g2
(g4
S'\xd8\x00'
tRp273
tp274
a(I142
g2
(g4
S's\x00'
tRp275
tp276
a(I143
g2
(g4
S'\xc2\x00'
tRp277
tp278
a(I144
g2
(g4
S'\x11\x01'
tRp279
tp280
a(I145
g2
(g4
S'\xcc\x00'
tRp281
tp282
a(I146
g2
(g4
S'\xbf\x00'
tRp283
tp284
a(I147
g2
(g4
S'\xe9\x00'
tRp285
tp286
a(I148
g2
(g4
S'\xd2\x00'
tRp287
tp288
a(I149
g2
(g4
S'\x1e\x01'
tRp289
tp290
a(I150
g2
(g4
S'\xfb\x00'
tRp291
tp292
a(I151
g2
(g4
S'\xcd\x00'
tRp293
tp294
a(I152
g2
(g4
S'\xdf\x00'
tRp295
tp296
a(I153
g2
(g4
S'\x19\x01'
tRp297
tp298
a(I154
g2
(g4
S'\xce\x00'
tRp299
tp300
a(I155
g2
(g4
S'\x12\x01'
tRp301
tp302
a(I156
g2
(g4
S'\xd4\x00'
tRp303
tp304
a(I157
g2
(g4
S'.\x01'
tRp305
tp306
a(I158
g2
(g4
S'\xe8\x00'
tRp307
tp308
a(I159
g2
(g4
S'\xe0\x00'
tRp309
tp310
a(I160
g2
(g4
S'\n\x01'
tRp311
tp312
a(I161
g2
(g4
S'\xf8\x00'
tRp313
tp314
a(I162
g2
(g4
S'\x02\x01'
tRp315
tp316
a(I163
g2
(g4
S'\xe6\x00'
tRp317
tp318
a(I164
g10
tp319
a(I165
g2
(g4
S'\xf4\x00'
tRp320
tp321
a(I166
g2
(g4
S'\xf9\x00'
tRp322
tp323
a(I167
g2
(g4
S'\xe4\x00'
tRp324
tp325
a(I168
g2
(g4
S'\xde\x00'
tRp326
tp327
a(I169
g259
tp328
a(I170
g2
(g4
S'\t\x01'
tRp329
tp330
a(I171
g2
(g4
S'\x1a\x01'
tRp331
tp332
a(I172
g2
(g4
S'\xdc\x00'
tRp333
tp334
a(I173
g196
tp335
a(I174
g2
(g4
S'\xc9\x00'
tRp336
tp337
a(I175
g2
(g4
S'%\x01'
tRp338
tp339
a(I176
g2
(g4
S'\x07\x01'
tRp340
tp341
a(I177
g2
(g4
S'\xf5\x00'
tRp342
tp343
a(I178
g2
(g4
S'\xd3\x00'
tRp344
tp345
a(I179
g2
(g4
S'\xc8\x00'
tRp346
tp347
a(I180
g2
(g4
S'2\x01'
tRp348
tp349
a(I181
g2
(g4
S'\xfc\x00'
tRp350
tp351
a(I182
g2
(g4
S'\x14\x01'
tRp352
tp353
a(I183
g2
(g4
S'$\x01'
tRp354
tp355
a(I184
g2
(g4
S'\xdb\x00'
tRp356
tp357
a(I185
g2
(g4
S'+\x01'
tRp358
tp359
a(I186
g2
(g4
S'\xd6\x00'
tRp360
tp361
a(I187
g2
(g4
S'\x04\x01'
tRp362
tp363
a(I188
g213
tp364
a(I189
g2
(g4
S'\xe5\x00'
tRp365
tp366
a(I190
g2
(g4
S"'\x01"
tRp367
tp368
a(I191
g2
(g4
S'\x0c\x01'
tRp369
tp370
a(I192
g2
(g4
S'\xf6\x00'
tRp371
tp372
a(I193
g2
(g4
S'\x18\x01'
tRp373
tp374
a(I194
g2
(g4
S'\x15\x01'
tRp375
tp376
a(I195
g2
(g4
S'\x18\x00'
tRp377
tp378
a(I196
g145
tp379
a(I197
g2
(g4
S'>\x01'
tRp380
tp381
a(I198
g209
tp382
a(I199
g2
(g4
S'\xfe\x00'
tRp383
tp384
a(I200
g2
(g4
S'1\x01'
tRp385
tp386
a(I201
g2
(g4
S'\x17\x01'
tRp387
tp388
a(I202
g2
(g4
S'\xef\x00'
tRp389
tp390
a(I203
g2
(g4
S'\xf0\x00'
tRp391
tp392
a(I204
g2
(g4
S'"\x01'
tRp393
tp394
a(I205
g313
tp395
a(I206
g2
(g4
S'\xfd\x00'
tRp396
tp397
a(I207
g2
(g4
S'G\x01'
tRp398
tp399
a(I208
g2
(g4
S'0\x01'
tRp400
tp401
a(I209
g2
(g4
S'A\x01'
tRp402
tp403
a(I210
g2
(g4
S'\x08\x01'
tRp404
tp405
a(I211
g2
(g4
S'\x05\x01'
tRp406
tp407
a(I212
g2
(g4
S'F\x01'
tRp408
tp409
a(I213
g2
(g4
S'Y\x01'
tRp410
tp411
a(I214
g2
(g4
S'\x0f\x01'
tRp412
tp413
a(I215
g160
tp414
a(I216
g2
(g4
S'E\x01'
tRp415
tp416
a(I217
g2
(g4
S':\x01'
tRp417
tp418
a(I218
g2
(g4
S'3\x01'
tRp419
tp420
a(I219
g2
(g4
S'@\x01'
tRp421
tp422
a(I220
g2
(g4
S'\x1b\x01'
tRp423
tp424
a(I221
g2
(g4
S'X\x01'
tRp425
tp426
a(I222
g2
(g4
S'\xee\x00'
tRp427
tp428
a(I223
g2
(g4
S'T\x01'
tRp429
tp430
a(I224
g2
(g4
S'\x0e\x01'
tRp431
tp432
a(I225
g2
(g4
S'U\x01'
tRp433
tp434
a(I226
g2
(g4
S'5\x01'
tRp435
tp436
a(I227
g2
(g4
S'=\x01'
tRp437
tp438
a(I228
g2
(g4
S'(\x01'
tRp439
tp440
a(I229
g2
(g4
S';\x01'
tRp441
tp442
a(I230
g2
(g4
S'\x13\x01'
tRp443
tp444
a(I231
g2
(g4
S'\x0b\x01'
tRp445
tp446
a(I232
g2
(g4
S'&\x01'
tRp447
tp448
a(I233
g2
(g4
S'\x1c\x01'
tRp449
tp450
a(I234
g2
(g4
S'R\x01'
tRp451
tp452
a(I235
g2
(g4
S'\x16\x01'
tRp453
tp454
a(I236
g10
tp455
a(I237
g2
(g4
S'<\x01'
tRp456
tp457
a(I238
g2
(g4
S'\x1d\x01'
tRp458
tp459
a(I239
g2
(g4
S',\x01'
tRp460
tp461
a(I240
g2
(g4
S'?\x01'
tRp462
tp463
a(I241
g2
(g4
S'Z\x01'
tRp464
tp465
a(I242
g2
(g4
S'/\x01'
tRp466
tp467
a(I243
g2
(g4
S'V\x01'
tRp468
tp469
a(I244
g2
(g4
S'*\x01'
tRp470
tp471
a(I245
g2
(g4
S'4\x01'
tRp472
tp473
a(I246
g2
(g4
S'W\x01'
tRp474
tp475
a(I247
g2
(g4
S'd\x01'
tRp476
tp477
a(I248
g2
(g4
S'6\x01'
tRp478
tp479
a(I249
g2
(g4
S'P\x01'
tRp480
tp481
a(I250
g2
(g4
S'k\x01'
tRp482
tp483
a(I251
g2
(g4
S'9\x01'
tRp484
tp485
a(I252
g2
(g4
S'7\x01'
tRp486
tp487
a(I253
g2
(g4
S'~\x01'
tRp488
tp489
a(I254
g2
(g4
S']\x01'
tRp490
tp491
a(I255
g2
(g4
S'l\x01'
tRp492
tp493
a(I256
g2
(g4
S'M\x01'
tRp494
tp495
a(I257
g2
(g4
S'J\x01'
tRp496
tp497
a(I258
g2
(g4
S'v\x01'
tRp498
tp499
a(I259
g2
(g4
S'8\x01'
tRp500
tp501
a(I260
g2
(g4
S'H\x01'
tRp502
tp503
a(I261
g2
(g4
S'K\x01'
tRp504
tp505
a(I262
g2
(g4
S'w\x01'
tRp506
tp507
a(I263
g2
(g4
S'u\x01'
tRp508
tp509
a(I264
g2
(g4
S'O\x01'
tRp510
tp511
a(I265
g2
(g4
S'\x87\x01'
tRp512
tp513
a(I266
g2
(g4
S'\x89\x01'
tRp514
tp515
a(I267
g2
(g4
S'i\x01'
tRp516
tp517
a(I268
g2
(g4
S'D\x01'
tRp518
tp519
a(I269
g2
(g4
S'I\x01'
tRp520
tp521
a(I270
g2
(g4
S'\\\x01'
tRp522
tp523
a(I271
g2
(g4
S'\x8a\x01'
tRp524
tp525
a(I272
g2
(g4
S'o\x01'
tRp526
tp527
a(I273
g2
(g4
S'j\x01'
tRp528
tp529
a(I274
g2
(g4
S'x\x01'
tRp530
tp531
a(I275
g2
(g4
S'f\x01'
tRp532
tp533
a(I276
g2
(g4
S'c\x01'
tRp534
tp535
a(I277
g2
(g4
S'^\x01'
tRp536
tp537
a(I278
g2
(g4
S'Q\x01'
tRp538
tp539
a(I279
g2
(g4
S'y\x01'
tRp540
tp541
a(I280
g255
tp542
a(I281
g2
(g4
S'L\x01'
tRp543
tp544
a(I282
g2
(g4
S'p\x01'
tRp545
tp546
a(I283
g2
(g4
S'B\x01'
tRp547
tp548
a(I284
g2
(g4
S'C\x01'
tRp549
tp550
a(I285
g2
(g4
S'\x96\x01'
tRp551
tp552
a(I286
g2
(g4
S'a\x01'
tRp553
tp554
a(I287
g2
(g4
S't\x01'
tRp555
tp556
a(I288
g2
(g4
S'g\x01'
tRp557
tp558
a(I289
g2
(g4
S'h\x01'
tRp559
tp560
a(I290
g2
(g4
S'S\x01'
tRp561
tp562
a(I291
g2
(g4
S'|\x01'
tRp563
tp564
a(I292
g160
tp565
a(I293
g2
(g4
S'm\x01'
tRp566
tp567
a(I294
g2
(g4
S'\xa1\x01'
tRp568
tp569
a(I295
g2
(g4
S'\x86\x01'
tRp570
tp571
a(I296
g2
(g4
S'{\x01'
tRp572
tp573
a(I297
g2
(g4
S'\x9c\x01'
tRp574
tp575
a(I298
g2
(g4
S'\xa8\x01'
tRp576
tp577
a(I299
g2
(g4
S'\x80\x01'
tRp578
tp579
a(I300
g2
(g4
S'\x95\x01'
tRp580
tp581
a(I301
g2
(g4
S'}\x01'
tRp582
tp583
a(I302
g2
(g4
S'_\x01'
tRp584
tp585
a(I303
g2
(g4
S'\x8b\x01'
tRp586
tp587
a(I304
g2
(g4
S's\x01'
tRp588
tp589
a(I305
g2
(g4
S'\xf0\x01'
tRp590
tp591
a(I306
g2
(g4
S'\xa2\x01'
tRp592
tp593
a(I307
g2
(g4
S'\x8d\x01'
tRp594
tp595
a(I308
g2
(g4
S'\x94\x01'
tRp596
tp597
a(I309
g2
(g4
S'\x97\x01'
tRp598
tp599
a(I310
g2
(g4
S'n\x01'
tRp600
tp601
a(I311
g2
(g4
S'\x8c\x01'
tRp602
tp603
a(I312
g2
(g4
S'\x83\x01'
tRp604
tp605
a(I313
g2
(g4
S'\xab\x01'
tRp606
tp607
a(I314
g2
(g4
S'\x9e\x01'
tRp608
tp609
a(I315
g2
(g4
S'\x99\x01'
tRp610
tp611
a(I316
g2
(g4
S'\x9a\x01'
tRp612
tp613
a(I317
g2
(g4
S'\x81\x01'
tRp614
tp615
a(I318
g2
(g4
S'z\x01'
tRp616
tp617
a(I319
g2
(g4
S'\xa4\x01'
tRp618
tp619
a(I320
g2
(g4
S'\x7f\x01'
tRp620
tp621
a(I321
g2
(g4
S'r\x01'
tRp622
tp623
a(I322
g2
(g4
S'\x85\x01'
tRp624
tp625
a(I323
g2
(g4
S'\xb0\x01'
tRp626
tp627
a(I324
g462
tp628
a(I325
g255
tp629
a(I326
g474
tp630
a(I327
g2
(g4
S'\x82\x01'
tRp631
tp632
a(I328
g2
(g4
S'\xa7\x01'
tRp633
tp634
a(I329
g2
(g4
S'\xaf\x01'
tRp635
tp636
a(I330
g2
(g4
S'\xa5\x01'
tRp637
tp638
a(I331
g2
(g4
S'\x8e\x01'
tRp639
tp640
a(I332
g2
(g4
S'\xb5\x01'
tRp641
tp642
a(I333
g2
(g4
S'\xa9\x01'
tRp643
tp644
a(I334
g2
(g4
S'\x8f\x01'
tRp645
tp646
a(I335
g2
(g4
S'\x9d\x01'
tRp647
tp648
a(I336
g2
(g4
S'\xbb\x01'
tRp649
tp650
a(I337
g2
(g4
S'\xb1\x01'
tRp651
tp652
a(I338
g2
(g4
S'\x88\x01'
tRp653
tp654
a(I339
g2
(g4
S'\x9f\x01'
tRp655
tp656
a(I340
g2
(g4
S'\xb4\x01'
tRp657
tp658
a(I341
g2
(g4
S'\xaa\x01'
tRp659
tp660
a(I342
g2
(g4
S'\xc1\x01'
tRp661
tp662
a(I343
g2
(g4
S'\x98\x01'
tRp663
tp664
a(I344
g2
(g4
S'\xc0\x01'
tRp665
tp666
a(I345
g2
(g4
S'\x92\x01'
tRp667
tp668
a(I346
g2
(g4
S'\xc6\x01'
tRp669
tp670
a(I347
g2
(g4
S'\xbe\x01'
tRp671
tp672
a(I348
g2
(g4
S'\xa6\x01'
tRp673
tp674
a(I349
g2
(g4
S'\x93\x01'
tRp675
tp676
a(I350
g2
(g4
S'\xb6\x01'
tRp677
tp678
a(I351
g594
tp679
a(I352
g2
(g4
S'\xa0\x01'
tRp680
tp681
a(I353
g2
(g4
S'\xb3\x01'
tRp682
tp683
a(I354
g2
(g4
S'\x9b\x01'
tRp684
tp685
a(I355
g2
(g4
S'\xbc\x01'
tRp686
tp687
a(I356
g2
(g4
S'\xba\x01'
tRp688
tp689
a(I357
g2
(g4
S'\xa3\x01'
tRp690
tp691
a(I358
g2
(g4
S'\xac\x01'
tRp692
tp693
a(I359
g2
(g4
S'\xc4\x01'
tRp694
tp695
a(I360
g2
(g4
S'\xb2\x01'
tRp696
tp697
a(I361
g2
(g4
S'\xc7\x01'
tRp698
tp699
a(I362
g185
tp700
a(I363
g2
(g4
S'\xae\x01'
tRp701
tp702
a(I364
g2
(g4
S'\xce\x01'
tRp703
tp704
a(I365
g2
(g4
S'\xd0\x01'
tRp705
tp706
a(I366
g647
tp707
a(I367
g2
(g4
S'\xcf\x01'
tRp708
tp709
a(I368
g2
(g4
S'\xed\x01'
tRp710
tp711
a(I369
g661
tp712
a(I370
g2
(g4
S'\xd8\x01'
tRp713
tp714
a(I371
g2
(g4
S'\xca\x01'
tRp715
tp716
a(I372
g643
tp717
a(I373
g2
(g4
S'\xb8\x01'
tRp718
tp719
a(I374
g2
(g4
S'\xad\x01'
tRp720
tp721
a(I375
g2
(g4
S'\xcb\x01'
tRp722
tp723
a(I376
g2
(g4
S'\xbd\x01'
tRp724
tp725
a(I377
g2
(g4
S'\xb7\x01'
tRp726
tp727
a(I378
g2
(g4
S'\xbf\x01'
tRp728
tp729
a(I379
g2
(g4
S'\xd7\x01'
tRp730
tp731
a(I380
g2
(g4
S'\xde\x01'
tRp732
tp733
a(I381
g2
(g4
S'\xcd\x01'
tRp734
tp735
a(I382
g2
(g4
S'\xc8\x01'
tRp736
tp737
a(I383
g2
(g4
S'\xb9\x01'
tRp738
tp739
a(I384
g2
(g4
S'\xe3\x01'
tRp740
tp741
a(I385
g2
(g4
S'\xc9\x01'
tRp742
tp743
a(I386
g2
(g4
S'\xc2\x01'
tRp744
tp745
a(I387
g2
(g4
S'\xe1\x01'
tRp746
tp747
a(I388
g2
(g4
S'\xc5\x01'
tRp748
tp749
a(I389
g2
(g4
S'\xe4\x01'
tRp750
tp751
a(I390
g2
(g4
S'\xea\x01'
tRp752
tp753
a(I391
g2
(g4
S'\xdc\x01'
tRp754
tp755
a(I392
g2
(g4
S'\xcc\x01'
tRp756
tp757
a(I393
g2
(g4
S'\xd3\x01'
tRp758
tp759
a(I394
g2
(g4
S'\xf5\x01'
tRp760
tp761
a(I395
g2
(g4
S'\xc3\x01'
tRp762
tp763
a(I396
g2
(g4
S'\xd9\x01'
tRp764
tp765
a(I397
g2
(g4
S'\xd1\x01'
tRp766
tp767
a(I398
g2
(g4
S'\xd5\x01'
tRp768
tp769
a(I399
g736
tp770
a(I400
g2
(g4
S'\xe6\x01'
tRp771
tp772
a(I401
g2
(g4
S'\xf6\x01'
tRp773
tp774
a(I402
g2
(g4
S'\xe7\x01'
tRp775
tp776
a(I403
g2
(g4
S'\xe8\x01'
tRp777
tp778
a(I404
g2
(g4
S'\xe0\x01'
tRp779
tp780
a(I405
g2
(g4
S'\xef\x01'
tRp781
tp782
a(I406
g2
(g4
S'\xfa\x01'
tRp783
tp784
a(I407
g2
(g4
S'\xd6\x01'
tRp785
tp786
a(I408
g2
(g4
S'\xda\x01'
tRp787
tp788
a(I409
g2
(g4
S'\xd2\x01'
tRp789
tp790
a(I410
g2
(g4
S'\x00\x02'
tRp791
tp792
a(I411
g2
(g4
S'\xdf\x01'
tRp793
tp794
a(I412
g2
(g4
S'\xe2\x01'
tRp795
tp796
a(I413
g2
(g4
S'\xd4\x01'
tRp797
tp798
a(I414
g2
(g4
S'\x06\x02'
tRp799
tp800
a(I415
g2
(g4
S'\xeb\x01'
tRp801
tp802
a(I416
g2
(g4
S'\xee\x01'
tRp803
tp804
a(I417
g2
(g4
S'\xf4\x01'
tRp805
tp806
a(I418
g2
(g4
S'\xf3\x01'
tRp807
tp808
a(I419
g2
(g4
S'\xdb\x01'
tRp809
tp810
a(I420
g2
(g4
S'1\x02'
tRp811
tp812
a(I421
g2
(g4
S'\xfb\x01'
tRp813
tp814
a(I422
g2
(g4
S'\xf9\x01'
tRp815
tp816
a(I423
g2
(g4
S'\xec\x01'
tRp817
tp818
a(I424
g2
(g4
S'\xe5\x01'
tRp819
tp820
a(I425
g2
(g4
S'\xdd\x01'
tRp821
tp822
a(I426
g2
(g4
S'\t\x02'
tRp823
tp824
a(I427
g2
(g4
S'\xe9\x01'
tRp825
tp826
a(I428
g160
tp827
a(I429
g813
tp828
a(I430
g2
(g4
S'\x03\x02'
tRp829
tp830
a(I431
g2
(g4
S'\xf8\x01'
tRp831
tp832
a(I432
g2
(g4
S'\xf1\x01'
tRp833
tp834
a(I433
g2
(g4
S'\x0f\x02'
tRp835
tp836
a(I434
g2
(g4
S'\xf2\x01'
tRp837
tp838
a(I435
g2
(g4
S'\x11\x02'
tRp839
tp840
a(I436
g2
(g4
S'\xf7\x01'
tRp841
tp842
a(I437
g2
(g4
S'\xfc\x01'
tRp843
tp844
a(I438
g2
(g4
S'\xff\x01'
tRp845
tp846
a(I439
g2
(g4
S'\x02\x02'
tRp847
tp848
a(I440
g2
(g4
S'\x0c\x02'
tRp849
tp850
a(I441
g2
(g4
S'\x01\x02'
tRp851
tp852
a(I442
g2
(g4
S'\x16\x02'
tRp853
tp854
a(I443
g2
(g4
S'\x12\x02'
tRp855
tp856
a(I444
g2
(g4
S'\x0e\x02'
tRp857
tp858
a(I445
g2
(g4
S'\n\x02'
tRp859
tp860
a(I446
g2
(g4
S'\xfe\x01'
tRp861
tp862
a(I447
g2
(g4
S'\x05\x02'
tRp863
tp864
a(I448
g863
tp865
a(I449
g2
(g4
S'\x08\x02'
tRp866
tp867
a(I450
g2
(g4
S'\x19\x02'
tRp868
tp869
a(I451
g2
(g4
S'\xfd\x01'
tRp870
tp871
a(I452
g2
(g4
S'\x18\x02'
tRp872
tp873
a(I453
g2
(g4
S'\x0b\x02'
tRp874
tp875
a(I454
g2
(g4
S'\x07\x02'
tRp876
tp877
a(I455
g2
(g4
S'%\x02'
tRp878
tp879
a(I456
g2
(g4
S'\x10\x02'
tRp880
tp881
a(I457
g2
(g4
S' \x02'
tRp882
tp883
a(I458
g2
(g4
S'\x13\x02'
tRp884
tp885
a(I459
g2
(g4
S'\x1a\x02'
tRp886
tp887
a(I460
g2
(g4
S'#\x02'
tRp888
tp889
a(I461
g2
(g4
S'"\x02'
tRp890
tp891
a(I462
g2
(g4
S'\x17\x02'
tRp892
tp893
a(I463
g2
(g4
S'\x1f\x02'
tRp894
tp895
a(I464
g2
(g4
S'\x04\x02'
tRp896
tp897
a(I465
g2
(g4
S'\x1b\x02'
tRp898
tp899
a(I466
g2
(g4
S'-\x02'
tRp900
tp901
a(I467
g2
(g4
S'\x14\x02'
tRp902
tp903
a(I468
g2
(g4
S'\r\x02'
tRp904
tp905
a(I469
g2
(g4
S'\x15\x02'
tRp906
tp907
a(I470
g861
tp908
a(I471
g2
(g4
S'\x1d\x02'
tRp909
tp910
a(I472
g2
(g4
S'+\x02'
tRp911
tp912
a(I473
g2
(g4
S'&\x02'
tRp913
tp914
a(I474
g2
(g4
S'\x1c\x02'
tRp915
tp916
a(I475
g2
(g4
S',\x02'
tRp917
tp918
a(I476
g2
(g4
S'<\x02'
tRp919
tp920
a(I477
g2
(g4
S'$\x02'
tRp921
tp922
a(I478
g2
(g4
S'*\x02'
tRp923
tp924
a(I479
g2
(g4
S'!\x02'
tRp925
tp926
a(I480
g2
(g4
S'6\x02'
tRp927
tp928
a(I481
g2
(g4
S'/\x02'
tRp929
tp930
a(I482
g2
(g4
S'3\x02'
tRp931
tp932
a(I483
g2
(g4
S'\x1e\x02'
tRp933
tp934
a(I484
g2
(g4
S"'\x02"
tRp935
tp936
a(I485
g2
(g4
S')\x02'
tRp937
tp938
a(I486
g2
(g4
S'5\x02'
tRp939
tp940
a(I487
g2
(g4
S'4\x02'
tRp941
tp942
a(I488
g2
(g4
S'.\x02'
tRp943
tp944
a(I489
g2
(g4
S'7\x02'
tRp945
tp946
a(I490
g2
(g4
S'(\x02'
tRp947
tp948
a(I491
g811
tp949
a(I492
g2
(g4
S'2\x02'
tRp950
tp951
a(I493
g2
(g4
S'=\x02'
tRp952
tp953
a(I494
g2
(g4
S'0\x02'
tRp954
tp955
a(I495
g2
(g4
S'?\x02'
tRp956
tp957
a(I496
g2
(g4
S'@\x02'
tRp958
tp959
a(I497
g2
(g4
S'9\x02'
tRp960
tp961
a(I498
g2
(g4
S'B\x02'
tRp962
tp963
a(I499
g2
(g4
S'C\x02'
tRp964
tp965
a(I500
g2
(g4
S'J\x02'
tRp966
tp967
a(I501
g2
(g4
S':\x02'
tRp968
tp969
a(I502
g2
(g4
S'A\x02'
tRp970
tp971
a(I503
g2
(g4
S'>\x02'
tRp972
tp973
a(I504
g2
(g4
S'8\x02'
tRp974
tp975
a(I505
g2
(g4
S';\x02'
tRp976
tp977
a(I506
g2
(g4
S'E\x02'
tRp978
tp979
a(I507
g2
(g4
S'F\x02'
tRp980
tp981
a(I508
g2
(g4
S'I\x02'
tRp982
tp983
a(I509
g2
(g4
S'D\x02'
tRp984
tp985
a(I510
g2
(g4
S'G\x02'
tRp986
tp987
a(I511
g2
(g4
S'H\x02'
tRp988
tp989
a(I512
g2
(g4
S'K\x02'
tRp990
tp991
a(I513
g2
(g4
S'L\x02'
tRp992
tp993
a(I514
g2
(g4
S'M\x02'
tRp994
tp995
a(lp996
g2
(g3
(S'f4'
I0
I1
tRp997
(I3
S'<'
NNNI-1
I-1
I0
tbS'SN\xc3<'
tRp998
ag2
(g997
S'\x9a\x99\x19>'
tRp999
ag2
(g997
S'\xfdv,?'
tRp1000
ag2
(g997
S'+\x0f\x89>'
tRp1001
ag2
(g997
S'\xc7\xe5\x93>'
tRp1002
ag2
(g997
S'\x86\xacW?'
tRp1003
ag2
(g997
S'\x9f\xf5X?'
tRp1004
ag2
(g997
S'?+\x9c>'
tRp1005
ag2
(g997
S'\x1eI??'
tRp1006
ag2
(g997
S'Uif?'
tRp1007
ag2
(g997
S'\xb9\xeb\xf3='
tRp1008
ag2
(g997
S'\x84K\xc0>'
tRp1009
ag2
(g997
S')\x86\xe7='
tRp1010
ag2
(g997
S'\xe1\x9el?'
tRp1011
ag2
(g997
S'\xea\x86o?'
tRp1012
ag2
(g997
S'D\xefc?'
tRp1013
ag2
(g997
S'\x8aAa?'
tRp1014
ag2
(g997
S'\x91\xc9k?'
tRp1015
ag2
(g997
S'\x9e\xb8k?'
tRp1016
ag2
(g997
S'\xa4\x18]?'
tRp1017
ag2
(g997
S'`HO?'
tRp1018
ag2
(g997
S'\xc5Nl?'
tRp1019
ag2
(g997
S'\xefLP?'
tRp1020
ag2
(g997
S'm\x0bg?'
tRp1021
ag2
(g997
S'\xcfMo?'
tRp1022
ag2
(g997
S'r\x18<?'
tRp1023
ag2
(g997
S'\x11\x1co?'
tRp1024
ag2
(g997
S'\xdb\xb6M?'
tRp1025
ag2
(g997
S'\xcerk?'
tRp1026
ag2
(g997
S'\xdb\x89n?'
tRp1027
ag2
(g997
S'\x06UT?'
tRp1028
ag2
(g997
S'\xf7\xbab?'
tRp1029
ag2
(g997
S'2*u?'
tRp1030
ag2
(g997
S'$\x07u?'
tRp1031
ag2
(g997
S'\xbfZq?'
tRp1032
ag2
(g997
S'\x82km?'
tRp1033
ag2
(g997
S'\x12\x1ev?'
tRp1034
ag2
(g997
S';\xa3d?'
tRp1035
ag2
(g997
S'\xcc\xf8p?'
tRp1036
ag2
(g997
S'\xbdvp?'
tRp1037
ag2
(g997
S'Khu?'
tRp1038
ag2
(g997
S'c\x93q?'
tRp1039
ag2
(g997
S'l\x19e?'
tRp1040
ag2
(g997
S'\xf5\xeaj?'
tRp1041
ag2
(g997
S'\xd7\xb2t?'
tRp1042
ag2
(g997
S'\x83\xbcf?'
tRp1043
ag2
(g997
S'\x0e\xc4r?'
tRp1044
ag2
(g997
S'\xe0\xadX?'
tRp1045
ag2
(g997
S'2\xe2v?'
tRp1046
ag2
(g997
S'\xfbL[?'
tRp1047
ag2
(g997
S'Y\x01o?'
tRp1048
ag2
(g997
S'g\xe8i?'
tRp1049
ag2
(g997
S'grt?'
tRp1050
ag2
(g997
S'\x89Ij?'
tRp1051
ag2
(g997
S'Gal?'
tRp1052
ag2
(g997
S'Hzr?'
tRp1053
ag2
(g997
S'Dxs?'
tRp1054
ag2
(g997
S'\xd7\xc9t?'
tRp1055
ag2
(g997
S'7yh?'
tRp1056
ag2
(g997
S'\xe1\x96Z?'
tRp1057
ag2
(g997
S'Lqd?'
tRp1058
ag2
(g997
S'JNt?'
tRp1059
ag2
(g997
S'{\xd3n?'
tRp1060
ag2
(g997
S',\xe9c?'
tRp1061
ag2
(g997
S'\xe2`n?'
tRp1062
ag2
(g997
S'\xeb\x9ci?'
tRp1063
ag2
(g997
S'\xbccg?'
tRp1064
ag2
(g997
S'\x16M\x86>'
tRp1065
ag2
(g997
S'U\xc0[?'
tRp1066
ag2
(g997
S'>\xb5j?'
tRp1067
ag2
(g997
S'9\xb8i?'
tRp1068
ag2
(g997
S'\xb2~\xe7>'
tRp1069
ag2
(g997
S'\xfb\xaag?'
tRp1070
ag2
(g997
S'H\x11p?'
tRp1071
ag2
(g997
S'\xd0\xe6q?'
tRp1072
ag2
(g997
S'X\xdaY?'
tRp1073
ag2
(g997
S';\x9eS?'
tRp1074
ag2
(g997
S'\x01\xc3l?'
tRp1075
ag2
(g997
S'%$X?'
tRp1076
ag2
(g997
S'"\x8b\xac='
tRp1077
ag2
(g997
S'\xc3Vd?'
tRp1078
ag2
(g997
S'\x88Io?'
tRp1079
ag2
(g997
S'\xc3\xb1`?'
tRp1080
ag2
(g997
S'\xa0\xe7_?'
tRp1081
ag2
(g997
S'*\xca\x18?'
tRp1082
ag2
(g997
S'\x7f\xbb\x0e?'
tRp1083
ag2
(g997
S'*\x84k?'
tRp1084
ag2
(g997
S'ix_?'
tRp1085
ag2
(g997
S'\x01\xf82?'
tRp1086
ag2
(g997
S'`\xdbl?'
tRp1087
ag2
(g997
S' q\x06?'
tRp1088
ag2
(g997
S'\x02|^?'
tRp1089
ag2
(g997
S'*\xa7\x9c>'
tRp1090
ag2
(g997
S'\xef\x10c?'
tRp1091
ag2
(g997
S'\x14\xcef?'
tRp1092
ag2
(g997
S'\x96he?'
tRp1093
ag2
(g997
S'jd\xa3>'
tRp1094
ag2
(g997
S'6$r?'
tRp1095
ag2
(g997
S'\x84\xb3\x06?'
tRp1096
ag2
(g997
S'N\xf9j?'
tRp1097
ag2
(g997
S'8\xf4\xc8<'
tRp1098
ag2
(g997
S'\x9e\x14k?'
tRp1099
ag2
(g997
S'\xa3\x9fm?'
tRp1100
ag2
(g997
S'9\xb2^?'
tRp1101
ag2
(g997
S'\xb8\xc0e?'
tRp1102
ag2
(g997
S'7M\xec>'
tRp1103
ag2
(g997
S'\xd6\xc2j?'
tRp1104
ag2
(g997
S'z)\x12>'
tRp1105
ag2
(g997
S'\xd1\x16\x1f>'
tRp1106
ag2
(g997
S'Q\x89i?'
tRp1107
ag2
(g997
S'\xc3\x91\xe6>'
tRp1108
ag2
(g997
S'I\xc5\\?'
tRp1109
ag2
(g997
S'\x0bcm?'
tRp1110
ag2
(g997
S'\xafDj?'
tRp1111
ag2
(g997
S'\x94$u>'
tRp1112
ag2
(g997
S'Pt\x1d='
tRp1113
ag2
(g997
S'\x8e\xd7i?'
tRp1114
ag2
(g997
S'5\xd0\x81<'
tRp1115
ag2
(g997
S'rHr?'
tRp1116
ag2
(g997
S'\xb76m?'
tRp1117
ag2
(g997
S'\x15\x9bj?'
tRp1118
ag2
(g997
S'\x8e\x96`?'
tRp1119
ag2
(g997
S'\xf5$i?'
tRp1120
ag2
(g997
S'\xac\xb6c?'
tRp1121
ag2
(g997
S'J\xa0l?'
tRp1122
ag2
(g997
S'\x00\xe3]?'
tRp1123
ag2
(g997
S'\xd8Sp?'
tRp1124
ag2
(g997
S'\xc1km?'
tRp1125
ag2
(g997
S'\xf5\xdcZ?'
tRp1126
ag2
(g997
S'\xbbng?'
tRp1127
ag2
(g997
S'l8\x87='
tRp1128
ag2
(g997
S'\xa5Ul?'
tRp1129
ag2
(g997
S'\xfd\xf1\xf4>'
tRp1130
ag2
(g997
S'\xcbE ?'
tRp1131
ag2
(g997
S'\x15Wn?'
tRp1132
ag2
(g997
S'c?m?'
tRp1133
ag2
(g997
S'$0J?'
tRp1134
ag2
(g997
S'\x86\x9aj?'
tRp1135
ag2
(g997
S'\xde\xdfg?'
tRp1136
ag2
(g997
S';\xdeq?'
tRp1137
ag2
(g997
S'\xb3\x13q?'
tRp1138
ag2
(g997
S'\x9a\xf9#?'
tRp1139
ag2
(g997
S'\x80*q?'
tRp1140
ag2
(g997
S'fVi?'
tRp1141
ag2
(g997
S'\x10\xc5n?'
tRp1142
ag2
(g997
S'e\x8cQ?'
tRp1143
ag2
(g997
S'\x8d\x11m?'
tRp1144
ag2
(g997
S"'Bj?"
tRp1145
ag2
(g997
S'P!h?'
tRp1146
ag2
(g997
S'\x1f\xf0\xe0>'
tRp1147
ag2
(g997
S'\xb4Nt?'
tRp1148
ag2
(g997
S'\xe6;o?'
tRp1149
ag2
(g997
S'\xb0\x94@?'
tRp1150
ag2
(g997
S'{qa?'
tRp1151
ag2
(g997
S'#Dt?'
tRp1152
ag2
(g997
S'e\xabj?'
tRp1153
ag2
(g997
S'\xda\x9ek?'
tRp1154
ag2
(g997
S'\xa5\x99p?'
tRp1155
ag2
(g997
S'\t\xc4r?'
tRp1156
ag2
(g997
S'\xb2\x9f\xbb>'
tRp1157
ag2
(g997
S'\xe7\xb8o?'
tRp1158
ag2
(g997
S'\x82\xc6l?'
tRp1159
ag2
(g997
S'H\x99\x08?'
tRp1160
ag2
(g997
S'\xf0\xb3M?'
tRp1161
ag2
(g997
S'\x7f\xf8=?'
tRp1162
ag2
(g997
S'\xc0\x1as?'
tRp1163
ag2
(g997
S'\x15^o?'
tRp1164
ag2
(g997
S'\xd4\xca8?'
tRp1165
ag2
(g997
S'\r\xf8l?'
tRp1166
ag2
(g997
S'\xe2\xd0s?'
tRp1167
ag2
(g997
S'\xab\x1dj?'
tRp1168
ag2
(g997
S'\xcad\x14?'
tRp1169
ag2
(g997
S'\x84\x90p?'
tRp1170
ag2
(g997
S'\x05\xa4b?'
tRp1171
ag2
(g997
S'"Ct?'
tRp1172
ag2
(g997
S'\x05/t?'
tRp1173
ag2
(g997
S'\xe7hp?'
tRp1174
ag2
(g997
S'\xd3yr?'
tRp1175
ag2
(g997
S't0n?'
tRp1176
ag2
(g997
S'\xcaa`?'
tRp1177
ag2
(g997
S'+U]?'
tRp1178
ag2
(g997
S':\xdag?'
tRp1179
ag2
(g997
S'\x88\xa3p?'
tRp1180
ag2
(g997
S'\xaa?g?'
tRp1181
ag2
(g997
S'\x05\x90o?'
tRp1182
ag2
(g997
S'\xc4\xafm?'
tRp1183
ag2
(g997
S'\xf3\x941?'
tRp1184
ag2
(g997
S':Ir?'
tRp1185
ag2
(g997
S'RZj?'
tRp1186
ag2
(g997
S'-`>?'
tRp1187
ag2
(g997
S'\x0f\x1fq?'
tRp1188
ag2
(g997
S'\xa8\xd2q?'
tRp1189
ag2
(g997
S'\xcb\xd2B?'
tRp1190
ag2
(g997
S'\xe5h\t>'
tRp1191
ag2
(g997
S'JPH?'
tRp1192
ag2
(g997
S'\xad\xc3n?'
tRp1193
ag2
(g997
S'_?=?'
tRp1194
ag2
(g997
S'c4e?'
tRp1195
ag2
(g997
S'1\x10g?'
tRp1196
ag2
(g997
S'\xf4gp?'
tRp1197
ag2
(g997
S':@s?'
tRp1198
ag2
(g997
S'|\x98q?'
tRp1199
ag2
(g997
S'\xf5\x90h?'
tRp1200
ag2
(g997
S'\x959R?'
tRp1201
ag2
(g997
S'q\xbbs?'
tRp1202
ag2
(g997
S'N\xbaj?'
tRp1203
ag2
(g997
S'F\xe0^?'
tRp1204
ag2
(g997
S'\x10\xe3l?'
tRp1205
ag2
(g997
S'".q?'
tRp1206
ag2
(g997
S'\xc8\x17s?'
tRp1207
ag2
(g997
S'\x9d\xd9o?'
tRp1208
ag2
(g997
S'\xc9\xaej?'
tRp1209
ag2
(g997
S'\xa9\xc4g?'
tRp1210
ag2
(g997
S'\xee\xf3\xdc<'
tRp1211
ag2
(g997
S'\xe2)i?'
tRp1212
ag2
(g997
S'\xcbv\x02?'
tRp1213
ag2
(g997
S'\x92\x84q?'
tRp1214
ag2
(g997
S'\x08\x8fl?'
tRp1215
ag2
(g997
S'\xbd\xa3o?'
tRp1216
ag2
(g997
S'\xa7\xdfj?'
tRp1217
ag2
(g997
S'\xc8\xdcs?'
tRp1218
ag2
(g997
S'\x94\x15m?'
tRp1219
ag2
(g997
S'\x9aKu?'
tRp1220
ag2
(g997
S'#\xb4k?'
tRp1221
ag2
(g997
S'\xdc)m?'
tRp1222
ag2
(g997
S'\\\x07s?'
tRp1223
ag2
(g997
S',\xe3q?'
tRp1224
ag2
(g997
S'\xc9*j?'
tRp1225
ag2
(g997
S'7@o?'
tRp1226
ag2
(g997
S'1\\m?'
tRp1227
ag2
(g997
S'\xde\xd1h?'
tRp1228
ag2
(g997
S'\xe1@p?'
tRp1229
ag2
(g997
S'\xf2{`?'
tRp1230
ag2
(g997
S'\x0c\xc3p?'
tRp1231
ag2
(g997
S'\xa8\xfeP>'
tRp1232
ag2
(g997
S'0mh?'
tRp1233
ag2
(g997
S'v\xa6s?'
tRp1234
ag2
(g997
S'uft?'
tRp1235
ag2
(g997
S'\xf0\xca\x0f?'
tRp1236
ag2
(g997
S'\xfa@o?'
tRp1237
ag2
(g997
S'\xacDn?'
tRp1238
ag2
(g997
S'\xf4\xa1m?'
tRp1239
ag2
(g997
S'\xa5*n?'
tRp1240
ag2
(g997
S'q\x07q?'
tRp1241
ag2
(g997
S'\xfc{>?'
tRp1242
ag2
(g997
S'8\x99l?'
tRp1243
ag2
(g997
S'\x19\xd3p?'
tRp1244
ag2
(g997
S'j\xb3q?'
tRp1245
ag2
(g997
S'\x03\xa7i?'
tRp1246
ag2
(g997
S'\x1a\xf1s?'
tRp1247
ag2
(g997
S'\x9bKh?'
tRp1248
ag2
(g997
S'\x96Oh?'
tRp1249
ag2
(g997
S'(>k?'
tRp1250
ag2
(g997
S'\xcc\xb7h?'
tRp1251
ag2
(g997
S'\x94\x92m?'
tRp1252
ag2
(g997
S'\xf4zh?'
tRp1253
ag2
(g997
S'\x96\rg?'
tRp1254
ag2
(g997
S'k5r?'
tRp1255
ag2
(g997
S'eKj?'
tRp1256
ag2
(g997
S'F\xddo?'
tRp1257
ag2
(g997
S'\xf6\x10k?'
tRp1258
ag2
(g997
S'FCo?'
tRp1259
ag2
(g997
S'\x14\xcbg?'
tRp1260
ag2
(g997
S'\xe6\x99f?'
tRp1261
ag2
(g997
S'\xee\xdfk?'
tRp1262
ag2
(g997
S'\xbb*o?'
tRp1263
ag2
(g997
S'Q\xf3o?'
tRp1264
ag2
(g997
S'R=_?'
tRp1265
ag2
(g997
S' \x97q?'
tRp1266
ag2
(g997
S'Z\x9ag?'
tRp1267
ag2
(g997
S'\x9a\xe8n?'
tRp1268
ag2
(g997
S'\x1fJi?'
tRp1269
ag2
(g997
S'\x8b\xd1q?'
tRp1270
ag2
(g997
S'~Ur?'
tRp1271
ag2
(g997
S'\xff\xb7k?'
tRp1272
ag2
(g997
S'\xae\x1ek?'
tRp1273
ag2
(g997
S'\xa3\x18l?'
tRp1274
ag2
(g997
S'\xd90)?'
tRp1275
ag2
(g997
S'^\x18F?'
tRp1276
ag2
(g997
S'|\xb7q?'
tRp1277
ag2
(g997
S'\xe4\xbel?'
tRp1278
ag2
(g997
S'u\xc8p?'
tRp1279
ag2
(g997
S'\xf0+r?'
tRp1280
ag2
(g997
S'\xf0\x1ac?'
tRp1281
ag2
(g997
S'\xc1}e?'
tRp1282
ag2
(g997
S'\x1f8r?'
tRp1283
ag2
(g997
S'\x8a\xa4q?'
tRp1284
ag2
(g997
S'\xb4Id?'
tRp1285
ag2
(g997
S'\xb6hs?'
tRp1286
ag2
(g997
S'\xe2\xbel?'
tRp1287
ag2
(g997
S'\xa2#\xaf='
tRp1288
ag2
(g997
S'\x04\x98s?'
tRp1289
ag2
(g997
S'8\xc3c?'
tRp1290
ag2
(g997
S'\x02\x11p?'
tRp1291
ag2
(g997
S'\xe8\x11p?'
tRp1292
ag2
(g997
S'\x16\xfcb?'
tRp1293
ag2
(g997
S'\xeeGl?'
tRp1294
ag2
(g997
S't\xfbn?'
tRp1295
ag2
(g997
S'\x8f<m?'
tRp1296
ag2
(g997
S'\x90\x9cg?'
tRp1297
ag2
(g997
S'A\x8dq?'
tRp1298
ag2
(g997
S'\xddXe?'
tRp1299
ag2
(g997
S'\rfq?'
tRp1300
ag2
(g997
S'8A%?'
tRp1301
ag2
(g997
S'\xe1\xf9g?'
tRp1302
ag2
(g997
S's\x84\x14?'
tRp1303
ag2
(g997
S'\x05\xe5n?'
tRp1304
ag2
(g997
S'x\x95a?'
tRp1305
ag2
(g997
S'\xa6ar?'
tRp1306
ag2
(g997
S'T\x8fi?'
tRp1307
ag2
(g997
S'\x94\x83r?'
tRp1308
ag2
(g997
S'\xd3fk?'
tRp1309
ag2
(g997
S'A\xc9n?'
tRp1310
ag2
(g997
S'wnm?'
tRp1311
ag2
(g997
S'\xa6\xd7g?'
tRp1312
ag2
(g997
S'\xa1\xc9m?'
tRp1313
ag2
(g997
S'\x7f@h?'
tRp1314
ag2
(g997
S'\x05\rl?'
tRp1315
ag2
(g997
S'`\x88h?'
tRp1316
ag2
(g997
S'4\xdal?'
tRp1317
ag2
(g997
S'\x99ng?'
tRp1318
ag2
(g997
S'\x9feg?'
tRp1319
ag2
(g997
S'\xda\xca/?'
tRp1320
ag2
(g997
S'\xad\xd5\x98>'
tRp1321
ag2
(g997
S'\xa2*\xef>'
tRp1322
ag2
(g997
S'\xd5Fe?'
tRp1323
ag2
(g997
S'X\x83l?'
tRp1324
ag2
(g997
S's;l?'
tRp1325
ag2
(g997
S'J\x91h?'
tRp1326
ag2
(g997
S'\x8e\x8et?'
tRp1327
ag2
(g997
S'\x12yn?'
tRp1328
ag2
(g997
S'\x13\xcf3?'
tRp1329
ag2
(g997
S'\xf5*t?'
tRp1330
ag2
(g997
S'\xd9)$?'
tRp1331
ag2
(g997
S'Rlh?'
tRp1332
ag2
(g997
S'\xeb\xcbm?'
tRp1333
ag2
(g997
S"\x98'r?"
tRp1334
ag2
(g997
S'^:r?'
tRp1335
ag2
(g997
S'\x8drg?'
tRp1336
ag2
(g997
S'\xebOB?'
tRp1337
ag2
(g997
S'*\x12+?'
tRp1338
ag2
(g997
S'\x9ddq?'
tRp1339
ag2
(g997
S'\x0eon?'
tRp1340
ag2
(g997
S'\xdb\xadl?'
tRp1341
ag2
(g997
S'8ch?'
tRp1342
ag2
(g997
S's\xd5f?'
tRp1343
ag2
(g997
S'\xad\x99e?'
tRp1344
ag2
(g997
S'\xcb\x9ds?'
tRp1345
ag2
(g997
S'\x90\x0bh?'
tRp1346
ag2
(g997
S'\xe8\xc5"?'
tRp1347
ag2
(g997
S'x\xa7t?'
tRp1348
ag2
(g997
S']\xc6i?'
tRp1349
ag2
(g997
S'\xcc\x15r?'
tRp1350
ag2
(g997
S'\x00Nr?'
tRp1351
ag2
(g997
S'p\xb4f?'
tRp1352
ag2
(g997
S'0\xc5q?'
tRp1353
ag2
(g997
S'p\xaeh?'
tRp1354
ag2
(g997
S'K\xeei?'
tRp1355
ag2
(g997
S'\xfbG^?'
tRp1356
ag2
(g997
S'\xb1\xcas?'
tRp1357
ag2
(g997
S'\xfc^\xef>'
tRp1358
ag2
(g997
S'M\x8cc?'
tRp1359
ag2
(g997
S'}\xacg?'
tRp1360
ag2
(g997
S'\xcf\xd2p?'
tRp1361
ag2
(g997
S'V\x0c\x12?'
tRp1362
ag2
(g997
S'\x05\xdak?'
tRp1363
ag2
(g997
S'\x1c\xb9e?'
tRp1364
ag2
(g997
S'\x82\xbf\x0b?'
tRp1365
ag2
(g997
S'[>e?'
tRp1366
ag2
(g997
S'\xa9\x94j?'
tRp1367
ag2
(g997
S'\xe6t\xd7>'
tRp1368
ag2
(g997
S'E<p?'
tRp1369
ag2
(g997
S"\xd4'n?"
tRp1370
ag2
(g997
S'KAq?'
tRp1371
ag2
(g997
S'_\xf3t?'
tRp1372
ag2
(g997
S'\x9d\x10q?'
tRp1373
ag2
(g997
S'\xe0\xe4l?'
tRp1374
ag2
(g997
S'\x05\xd2k?'
tRp1375
ag2
(g997
S'N`j?'
tRp1376
ag2
(g997
S'\xfc\xb1n?'
tRp1377
ag2
(g997
S'\xb6\xf1\x0f?'
tRp1378
ag2
(g997
S'\x94/r?'
tRp1379
ag2
(g997
S'\xdd\x07k?'
tRp1380
ag2
(g997
S'u\x85l?'
tRp1381
ag2
(g997
S'T3r?'
tRp1382
ag2
(g997
S'D\x88i?'
tRp1383
ag2
(g997
S'l\xdeh?'
tRp1384
ag2
(g997
S'\xff\x83q?'
tRp1385
ag2
(g997
S'=\xd9d?'
tRp1386
ag2
(g997
S')\xc2k?'
tRp1387
ag2
(g997
S'\xaf\xceq?'
tRp1388
ag2
(g997
S'C\xf8p?'
tRp1389
ag2
(g997
S'\x94Yn?'
tRp1390
ag2
(g997
S'\xea\xe1m?'
tRp1391
ag2
(g997
S'\r\x88s?'
tRp1392
ag2
(g997
S'\xde\xc0m?'
tRp1393
ag2
(g997
S"\x82'e?"
tRp1394
ag2
(g997
S'\xc6\xbb%?'
tRp1395
ag2
(g997
S'\xcc\xcdj?'
tRp1396
ag2
(g997
S'\x0fwl?'
tRp1397
ag2
(g997
S'\x16\xb0q?'
tRp1398
ag2
(g997
S'T\ns?'
tRp1399
ag2
(g997
S'\x11\xd8i?'
tRp1400
ag2
(g997
S'\xd9\xecm?'
tRp1401
ag2
(g997
S'#rm?'
tRp1402
ag2
(g997
S'J\xbbl?'
tRp1403
ag2
(g997
S'\xe3:k?'
tRp1404
ag2
(g997
S'\xaevg?'
tRp1405
ag2
(g997
S'>5n?'
tRp1406
ag2
(g997
S'$\xc3p?'
tRp1407
ag2
(g997
S' \x19n?'
tRp1408
ag2
(g997
S'\x18\xb3m?'
tRp1409
ag2
(g997
S'\x91\xd3i?'
tRp1410
ag2
(g997
S'\xa2\xear?'
tRp1411
ag2
(g997
S'"8k?'
tRp1412
ag2
(g997
S'\xb1\x95p?'
tRp1413
ag2
(g997
S'\xfd\xe3h?'
tRp1414
ag2
(g997
S'\xa0.n?'
tRp1415
ag2
(g997
S'Ad\xed<'
tRp1416
ag2
(g997
S'p\xea7?'
tRp1417
ag2
(g997
S'#so?'
tRp1418
ag2
(g997
S'Owl?'
tRp1419
ag2
(g997
S'\xce\xb0q?'
tRp1420
ag2
(g997
S'5\xb9i?'
tRp1421
ag2
(g997
S'H\xfbm?'
tRp1422
ag2
(g997
S'F\x0fn?'
tRp1423
ag2
(g997
S'>&\xc5<'
tRp1424
ag2
(g997
S'\xd0\xb7\xfc>'
tRp1425
ag2
(g997
S'\xadgi?'
tRp1426
ag2
(g997
S'\xfc\x8as?'
tRp1427
ag2
(g997
S'\x0cEs?'
tRp1428
ag2
(g997
S'\x12\xb6i?'
tRp1429
ag2
(g997
S'\xd3\xc1q?'
tRp1430
ag2
(g997
S'\xa3\xd0n?'
tRp1431
ag2
(g997
S'\x85\ro?'
tRp1432
ag2
(g997
S'\xeb\xb3r?'
tRp1433
ag2
(g997
S'\xc0\x98n?'
tRp1434
ag2
(g997
S'\x00\xd1p?'
tRp1435
ag2
(g997
S';\x81m?'
tRp1436
ag2
(g997
S'\x92\xddq?'
tRp1437
ag2
(g997
S'\xf8\xd4h?'
tRp1438
ag2
(g997
S'\xde2k?'
tRp1439
ag2
(g997
S'_Xo?'
tRp1440
ag2
(g997
S'f\x9bo?'
tRp1441
ag2
(g997
S'\r\xe0;?'
tRp1442
ag2
(g997
S'uq\xdd>'
tRp1443
ag2
(g997
S'\x8f\x05C?'
tRp1444
ag2
(g997
S'Z/n?'
tRp1445
ag2
(g997
S'Gnj?'
tRp1446
ag2
(g997
S'\xd6\x8ak?'
tRp1447
ag2
(g997
S'\xac\xbek?'
tRp1448
ag2
(g997
S'\xc8&n?'
tRp1449
ag2
(g997
S'K\xfbh?'
tRp1450
ag2
(g997
S'gen?'
tRp1451
ag2
(g997
S'\xe1\ro?'
tRp1452
ag2
(g997
S',\x9cq?'
tRp1453
ag2
(g997
S'\x1dZq?'
tRp1454
ag2
(g997
S'\xba\x9dg?'
tRp1455
ag2
(g997
S'\x17\xb8n?'
tRp1456
ag2
(g997
S'\x00\x9bm?'
tRp1457
ag2
(g997
S'\xfa\xa7q?'
tRp1458
ag2
(g997
S'[\xf6o?'
tRp1459
ag2
(g997
S'\x0f\xf7i?'
tRp1460
ag2
(g997
S')\xfcm?'
tRp1461
ag2
(g997
S'e\xc1l?'
tRp1462
ag2
(g997
S'[yk?'
tRp1463
ag2
(g997
S'\xd1"[?'
tRp1464
ag2
(g997
S'9\xe9k?'
tRp1465
ag2
(g997
S'j\xbb\xd4>'
tRp1466
ag2
(g997
S'\x03ur?'
tRp1467
ag2
(g997
S'E\xe0m?'
tRp1468
ag2
(g997
S'<Rp?'
tRp1469
ag2
(g997
S'\x929a?'
tRp1470
ag2
(g997
S'f\x16h?'
tRp1471
ag2
(g997
S'9gk?'
tRp1472
ag2
(g997
S'\x05\xdeo?'
tRp1473
ag2
(g997
S'\xcdNp?'
tRp1474
ag2
(g997
S'\x12\x8ah?'
tRp1475
ag2
(g997
S'\xd3\x8al?'
tRp1476
ag2
(g997
S'hJl?'
tRp1477
ag2
(g997
S'\x0b\xd4n?'
tRp1478
ag2
(g997
S'\xb0\x14l?'
tRp1479
ag2
(g997
S'\xbc6j?'
tRp1480
ag2
(g997
S'\xda\x0el?'
tRp1481
ag2
(g997
S'\x0bRm?'
tRp1482
ag2
(g997
S'=\xf8l?'
tRp1483
ag2
(g997
S'-Mi?'
tRp1484
ag2
(g997
S'\x8f\xd1m?'
tRp1485
ag2
(g997
S'\xcb\x85j?'
tRp1486
ag2
(g997
S'3Aj?'
tRp1487
ag2
(g997
S'\xf4\x7fr?'
tRp1488
ag2
(g997
S'\xbb2q?'
tRp1489
ag2
(g997
S'\xb4\xc8k?'
tRp1490
ag2
(g997
S'\xd9\x01q?'
tRp1491
ag2
(g997
S'\xda\xd3j?'
tRp1492
ag2
(g997
S'\x07\xbbm?'
tRp1493
ag2
(g997
S'\xb1\xd5k?'
tRp1494
ag2
(g997
S'\xd9\xcfo?'
tRp1495
ag2
(g997
S';\xc9j?'
tRp1496
ag2
(g997
S'\n\x93n?'
tRp1497
ag2
(g997
S'\\tp?'
tRp1498
ag2
(g997
S'\xb8\xf8e?'
tRp1499
ag2
(g997
S'*nh?'
tRp1500
ag2
(g997
S'\n\x97c?'
tRp1501
ag2
(g997
S'Z>s?'
tRp1502
ag2
(g997
S'\xba\xcfp?'
tRp1503
ag2
(g997
S'\xc4\x08r?'
tRp1504
ag2
(g997
S'\xba\xf8n?'
tRp1505
ag2
(g997
S'\x9a\x19r?'
tRp1506
ag2
(g997
S'\x17!t?'
tRp1507
ag2
(g997
S'dmm?'
tRp1508
ag2
(g997
S'\x85\x8dr?'
tRp1509
ag2
(g997
S'\xc6\xa0q?'
tRp1510
at.