((lp1
(I2
cnumpy.core.multiarray
scalar
p2
(cnumpy
dtype
p3
(S'u2'
I0
I1
tRp4
(I3
S'<'
NNNI-1
I-1
I0
tbS'\xed\x00'
tRp5
tp6
a(I3
g2
(g4
S'\xec\x00'
tRp7
tp8
a(I4
g2
(g4
S'\xe3\x00'
tRp9
tp10
a(I5
g2
(g4
S'\xb3\x00'
tRp11
tp12
a(I6
g2
(g4
S'\x9f\x00'
tRp13
tp14
a(I7
g2
(g4
S'\x19\x01'
tRp15
tp16
a(I8
g2
(g4
S'\xdc\x00'
tRp17
tp18
a(I9
g2
(g4
S'\xe0\x00'
tRp19
tp20
a(I10
g2
(g4
S'\xe5\x00'
tRp21
tp22
a(I11
g2
(g4
S'u\x00'
tRp23
tp24
a(I12
g2
(g4
S'\xb9\x00'
tRp25
tp26
a(I13
g2
(g4
S'\xe6\x00'
tRp27
tp28
a(I14
g2
(g4
S'\xb5\x00'
tRp29
tp30
a(I15
g2
(g4
S'\x94\x00'
tRp31
tp32
a(I16
g2
(g4
S'\xc0\x00'
tRp33
tp34
a(I17
g2
(g4
S'\x95\x00'
tRp35
tp36
a(I18
g2
(g4
S'\x8c\x00'
tRp37
tp38
a(I19
g2
(g4
S'\xd3\x00'
tRp39
tp40
a(I20
g2
(g4
S'\xb6\x00'
tRp41
tp42
a(I21
g2
(g4
S'\xa8\x00'
tRp43
tp44
a(I22
g2
(g4
S'\xd6\x00'
tRp45
tp46
a(I23
g2
(g4
S'w\x00'
tRp47
tp48
a(I24
g2
(g4
S'\xc8\x00'
tRp49
tp50
a(I25
g2
(g4
S'\xe2\x00'
tRp51
tp52
a(I26
g2
(g4
S'\xe7\x00'
tRp53
tp54
a(I27
g2
(g4
S'\xb7\x00'
tRp55
tp56
a(I28
g2
(g4
S'\x1b\x00'
tRp57
tp58
a(I29
g2
(g4
S'$\x00'
tRp59
tp60
a(I30
g2
(g4
S'\xd5\x00'
tRp61
tp62
a(I31
g2
(g4
S'\xdd\x00'
tRp63
tp64
a(I32
g2
(g4
S'\xa5\x00'
tRp65
tp66
a(I33
g2
(g4
S'\xa6\x00'
tRp67
tp68
a(I34
g2
(g4
S'\xe8\x00'
tRp69
tp70
a(I35
g2
(g4
S"'\x00"
tRp71
tp72
a(I36
g2
(g4
S'\x8d\x00'
tRp73
tp74
a(I37
g2
(g4
S'\xd7\x00'
tRp75
tp76
a(I38
g2
(g4
S'*\x00'
tRp77
tp78
a(I39
g2
(g4
S'|\x00'
tRp79
tp80
a(I40
g2
(g4
S'1\x00'
tRp81
tp82
a(I41
g2
(g4
S'\xf1\x00'
tRp83
tp84
a(I42
g2
(g4
S'\xfa\x00'
tRp85
tp86
a(I43
g2
(g4
S'\x81\x00'
tRp87
tp88
a(I44
g2
(g4
S'9\x00'
tRp89
tp90
a(I45
g2
(g4
S'0\x00'
tRp91
tp92
a(I46
g2
(g4
S'\xde\x00'
tRp93
tp94
a(I47
g2
(g4
S'\xa9\x00'
tRp95
tp96
a(I48
g2
(g4
S'\xaa\x00'
tRp97
tp98
a(I49
g2
(g4
S'\xf0\x00'
tRp99
tp100
a(I50
g2
(g4
S'\xc3\x00'
tRp101
tp102
a(I51
g2
(g4
S':\x00'
tRp103
tp104
a(I52
g2
(g4
S'>\x00'
tRp105
tp106
a(I53
g2
(g4
S'?\x00'
tRp107
tp108
a(I54
g2
(g4
S'\xf6\x00'
tRp109
tp110
a(I55
g2
(g4
S'B\x00'
tRp111
tp112
a(I56
g2
(g4
S'H\x00'
tRp113
tp114
a(I57
g113
tp115
a(I58
g2
(g4
S'F\x00'
tRp116
tp117
a(I59
g2
(g4
S'D\x00'
tRp118
tp119
a(I60
g2
(g4
S'K\x00'
tRp120
tp121
a(I61
g2
(g4
S'G\x00'
tRp122
tp123
a(I62
g2
(g4
S'\xcf\x00'
tRp124
tp125
a(I63
g2
(g4
S'N\x00'
tRp126
tp127
a(I64
g2
(g4
S'=\x00'
tRp128
tp129
a(I65
g2
(g4
S'\xbc\x00'
tRp130
tp131
a(I66
g2
(g4
S'Q\x00'
tRp132
tp133
a(I67
g2
(g4
S'S\x00'
tRp134
tp135
a(I68
g113
tp136
a(I69
g126
tp137
a(I70
g2
(g4
S'\xbd\x00'
tRp138
tp139
a(I71
g113
tp140
a(I72
g2
(g4
S'\x82\x00'
tRp141
tp142
a(I73
g2
(g4
S'X\x00'
tRp143
tp144
a(I74
g2
(g4
S'V\x00'
tRp145
tp146
a(I75
g2
(g4
S'U\x00'
tRp147
tp148
a(I76
g2
(g4
S'Z\x00'
tRp149
tp150
a(I77
g2
(g4
S'\x83\x00'
tRp151
tp152
a(I78
g151
tp153
a(I79
g2
(g4
S'\xbe\x00'
tRp154
tp155
a(I80
g2
(g4
S']\x00'
tRp156
tp157
a(I81
g147
tp158
a(I82
g2
(g4
S'\x8f\x00'
tRp159
tp160
a(I83
g2
(g4
S'\xc7\x00'
tRp161
tp162
a(I84
g2
(g4
S'[\x00'
tRp163
tp164
a(I85
g156
tp165
a(I86
g2
(g4
S'\x84\x00'
tRp166
tp167
a(I87
g2
(g4
S'`\x00'
tRp168
tp169
a(I88
g2
(g4
S'a\x00'
tRp170
tp171
a(I89
g2
(g4
S'^\x00'
tRp172
tp173
a(I90
g2
(g4
S'\xb2\x00'
tRp174
tp175
a(I91
g2
(g4
S'\xb0\x00'
tRp176
tp177
a(I92
g2
(g4
S'\x98\x00'
tRp178
tp179
a(I93
g2
(g4
S'c\x00'
tRp180
tp181
a(I94
g2
(g4
S'd\x00'
tRp182
tp183
a(I95
g2
(g4
S'f\x00'
tRp184
tp185
a(I96
g2
(g4
S'\xa4\x00'
tRp186
tp187
a(I97
g2
(g4
S'g\x00'
tRp188
tp189
a(I98
g2
(g4
S'\x8a\x00'
tRp190
tp191
a(I99
g2
(g4
S'h\x00'
tRp192
tp193
a(I100
g2
(g4
S'j\x00'
tRp194
tp195
a(I101
g2
(g4
S'k\x00'
tRp196
tp197
a(I102
g2
(g4
S'\x90\x00'
tRp198
tp199
a(I103
g2
(g4
S'l\x00'
tRp200
tp201
a(I104
g194
tp202
a(I105
g190
tp203
a(I106
g2
(g4
S'\x91\x00'
tRp204
tp205
a(I107
g2
(g4
S'm\x00'
tRp206
tp207
a(I108
g2
(g4
S'o\x00'
tRp208
tp209
a(I109
g2
(g4
S'q\x00'
tRp210
tp211
a(I110
g204
tp212
a(I111
g2
(g4
S'r\x00'
tRp213
tp214
a(I112
g2
(g4
S'\x0f\x01'
tRp215
tp216
a(I113
g2
(g4
S'\x9c\x00'
tRp217
tp218
a(I114
g2
(g4
S'\xc2\x00'
tRp219
tp220
a(I115
g2
(g4
S'\xf7\x00'
tRp221
tp222
a(I116
g2
(g4
S'\xee\x00'
tRp223
tp224
a(I117
g2
(g4
S'"\x00'
tRp225
tp226
a(I118
g2
(g4
S'\xd4\x00'
tRp227
tp228
a(I119
g2
(g4
S'\r\x01'
tRp229
tp230
a(I120
g2
(g4
S'\x8e\x00'
tRp231
tp232
a(I121
g2
(g4
S'\x0c\x01'
tRp233
tp234
a(I122
g2
(g4
S')\x01'
tRp235
tp236
a(I123
g2
(g4
S"'\x01"
tRp237
tp238
a(I124
g2
(g4
S'\x06\x01'
tRp239
tp240
a(I125
g2
(g4
S',\x01'
tRp241
tp242
a(I126
g2
(g4
S'\xab\x00'
tRp243
tp244
a(I127
g138
tp245
a(I128
g166
tp246
a(I129
g2
(g4
S'(\x01'
tRp247
tp248
a(I130
g2
(g4
S'\xf3\x00'
tRp249
tp250
a(I131
g2
(g4
S'\xff\x00'
tRp251
tp252
a(I132
g194
tp253
a(I133
g2
(g4
S'\xb8\x00'
tRp254
tp255
a(I134
g2
(g4
S'\xca\x00'
tRp256
tp257
a(I135
g2
(g4
S'E\x00'
tRp258
tp259
a(I136
g2
(g4
S'\x9d\x00'
tRp260
tp261
a(I137
g2
(g4
S'\xd0\x00'
tRp262
tp263
a(I138
g2
(g4
S'y\x00'
tRp264
tp265
a(I139
g2
(g4
S'\xac\x00'
tRp266
tp267
a(I140
g2
(g4
S'p\x00'
tRp268
tp269
a(I141
g159
tp270
a(I142
g2
(g4
S'\xeb\x00'
tRp271
tp272
a(I143
g2
(g4
S'\x00\x01'
tRp273
tp274
a(I144
g2
(g4
S'\xcb\x00'
tRp275
tp276
a(I145
g2
(g4
S'\xe9\x00'
tRp277
tp278
a(I146
g2
(g4
S'\xcd\x00'
tRp279
tp280
a(I147
g198
tp281
a(I148
g2
(g4
S'\x99\x00'
tRp282
tp283
a(I149
g2
(g4
S'\x9e\x00'
tRp284
tp285
a(I150
g2
(g4
S'6\x01'
tRp286
tp287
a(I151
g2
(g4
S'\x12\x01'
tRp288
tp289
a(I152
g2
(g4
S'\xef\x00'
tRp290
tp291
a(I153
g172
tp292
a(I154
g2
(g4
S'&\x01'
tRp293
tp294
a(I155
g2
(g4
S'\n\x01'
tRp295
tp296
a(I156
g2
(g4
S'\x1e\x01'
tRp297
tp298
a(I157
g2
(g4
S'\xf4\x00'
tRp299
tp300
a(I158
g2
(g4
S'\xf2\x00'
tRp301
tp302
a(I159
g2
(g4
S'\xc6\x00'
tRp303
tp304
a(I160
g204
tp305
a(I161
g2
(g4
S'\x0e\x01'
tRp306
tp307
a(I162
g2
(g4
S'$\x01'
tRp308
tp309
a(I163
g2
(g4
S'\t\x01'
tRp310
tp311
a(I164
g2
(g4
S'\xcc\x00'
tRp312
tp313
a(I165
g2
(g4
S'\xd1\x00'
tRp314
tp315
a(I166
g2
(g4
S'#\x01'
tRp316
tp317
a(I167
g2
(g4
S'\xc5\x00'
tRp318
tp319
a(I168
g2
(g4
S'\x08\x01'
tRp320
tp321
a(I169
g2
(g4
S'\x1b\x01'
tRp322
tp323
a(I170
g2
(g4
S'\xce\x00'
tRp324
tp325
a(I171
g2
(g4
S'M\x01'
tRp326
tp327
a(I172
g2
(g4
S'\xf5\x00'
tRp328
tp329
a(I173
g2
(g4
S'L\x00'
tRp330
tp331
a(I174
g2
(g4
S' \x01'
tRp332
tp333
a(I175
g2
(g4
S'!\x01'
tRp334
tp335
a(I176
g2
(g4
S'3\x01'
tRp336
tp337
a(I177
g2
(g4
S'V\x01'
tRp338
tp339
a(I178
g2
(g4
S'>\x01'
tRp340
tp341
a(I179
g2
(g4
S';\x00'
tRp342
tp343
a(I180
g2
(g4
S'\xd8\x00'
tRp344
tp345
a(I181
g2
(g4
S'\xbf\x00'
tRp346
tp347
a(I182
g2
(g4
S'\xd2\x00'
tRp348
tp349
a(I183
g2
(g4
S'8\x01'
tRp350
tp351
a(I184
g2
(g4
S'0\x01'
tRp352
tp353
a(I185
g2
(g4
S'\xf9\x00'
tRp354
tp355
a(I186
g2
(g4
S'S\x01'
tRp356
tp357
a(I187
g2
(g4
S'F\x01'
tRp358
tp359
a(I188
g2
(g4
S'=\x01'
tRp360
tp361
a(I189
g2
(g4
S'C\x01'
tRp362
tp363
a(I190
g2
(g4
S'U\x01'
tRp364
tp365
a(I191
g93
tp366
a(I192
g2
(g4
S'\xfb\x00'
tRp367
tp368
a(I193
g2
(g4
S'\x05\x01'
tRp369
tp370
a(I194
g2
(g4
S'\xc4\x00'
tRp371
tp372
a(I195
g2
(g4
S'Y\x01'
tRp373
tp374
a(I196
g2
(g4
S'\\\x01'
tRp375
tp376
a(I197
g2
(g4
S'\x1a\x01'
tRp377
tp378
a(I198
g2
(g4
S'\x15\x01'
tRp379
tp380
a(I199
g2
(g4
S'\x1c\x01'
tRp381
tp382
a(I200
g2
(g4
S'\xea\x00'
tRp383
tp384
a(I201
g2
(g4
S'\xda\x00'
tRp385
tp386
a(I202
g2
(g4
S'a\x01'
tRp387
tp388
a(I203
g2
(g4
S'\x14\x01'
tRp389
tp390
a(I204
g2
(g4
S':\x01'
tRp391
tp392
a(I205
g2
(g4
S'\xd9\x00'
tRp393
tp394
a(I206
g2
(g4
S'\x1d\x01'
tRp395
tp396
a(I207
g2
(g4
S'\xdb\x00'
tRp397
tp398
a(I208
g2
(g4
S'\x11\x01'
tRp399
tp400
a(I209
g2
(g4
S'G\x01'
tRp401
tp402
a(I210
g2
(g4
S'\x04\x01'
tRp403
tp404
a(I211
g2
(g4
S'B\x01'
tRp405
tp406
a(I212
g2
(g4
S'\x16\x01'
tRp407
tp408
a(I213
g2
(g4
S'4\x01'
tRp409
tp410
a(I214
g2
(g4
S'\x01\x01'
tRp411
tp412
a(I215
g2
(g4
S'l\x01'
tRp413
tp414
a(I216
g2
(g4
S'H\x01'
tRp415
tp416
a(I217
g407
tp417
a(I218
g2
(g4
S'/\x01'
tRp418
tp419
a(I219
g2
(g4
S'\xfc\x00'
tRp420
tp421
a(I220
g2
(g4
S'\xfd\x00'
tRp422
tp423
a(I221
g2
(g4
S'%\x01'
tRp424
tp425
a(I222
g2
(g4
S'N\x01'
tRp426
tp427
a(I223
g81
tp428
a(I224
g395
tp429
a(I225
g2
(g4
S'h\x01'
tRp430
tp431
a(I226
g2
(g4
S'D\x01'
tRp432
tp433
a(I227
g2
(g4
S'\x07\x01'
tRp434
tp435
a(I228
g2
(g4
S'O\x01'
tRp436
tp437
a(I229
g2
(g4
S'\x17\x01'
tRp438
tp439
a(I230
g2
(g4
S'p\x01'
tRp440
tp441
a(I231
g2
(g4
S'9\x01'
tRp442
tp443
a(I232
g2
(g4
S'1\x01'
tRp444
tp445
a(I233
g2
(g4
S'_\x01'
tRp446
tp447
a(I234
g2
(g4
S'.\x01'
tRp448
tp449
a(I235
g2
(g4
S'\x13\x01'
tRp450
tp451
a(I236
g2
(g4
S'\xf8\x00'
tRp452
tp453
a(I237
g2
(g4
S'^\x01'
tRp454
tp455
a(I238
g2
(g4
S's\x01'
tRp456
tp457
a(I239
g2
(g4
S'?\x01'
tRp458
tp459
a(I240
g2
(g4
S'K\x01'
tRp460
tp461
a(I241
g2
(g4
S'\x03\x01'
tRp462
tp463
a(I242
g2
(g4
S'r\x01'
tRp464
tp465
a(I243
g2
(g4
S'7\x01'
tRp466
tp467
a(I244
g2
(g4
S'X\x01'
tRp468
tp469
a(I245
g2
(g4
S'\x10\x01'
tRp470
tp471
a(I246
g2
(g4
S'T\x01'
tRp472
tp473
a(I247
g126
tp474
a(I248
g2
(g4
S'\x0b\x01'
tRp475
tp476
a(I249
g2
(g4
S'\x1f\x01'
tRp477
tp478
a(I250
g2
(g4
S'"\x01'
tRp479
tp480
a(I251
g2
(g4
S'o\x01'
tRp481
tp482
a(I252
g2
(g4
S'm\x01'
tRp483
tp484
a(I253
g2
(g4
S'J\x01'
tRp485
tp486
a(I254
g2
(g4
S'@\x01'
tRp487
tp488
a(I255
g2
(g4
S'5\x01'
tRp489
tp490
a(I256
g2
(g4
S'*\x01'
tRp491
tp492
a(I257
g2
(g4
S'-\x01'
tRp493
tp494
a(I258
g2
(g4
S'+\x01'
tRp495
tp496
a(I259
g2
(g4
S'}\x01'
tRp497
tp498
a(I260
g2
(g4
S'j\x01'
tRp499
tp500
a(I261
g2
(g4
S'P\x01'
tRp501
tp502
a(I262
g2
(g4
S'Z\x01'
tRp503
tp504
a(I263
g2
(g4
S't\x01'
tRp505
tp506
a(I264
g2
(g4
S'f\x01'
tRp507
tp508
a(I265
g2
(g4
S'b\x01'
tRp509
tp510
a(I266
g2
(g4
S'\x18\x01'
tRp511
tp512
a(I267
g2
(g4
S'\x80\x01'
tRp513
tp514
a(I268
g2
(g4
S'L\x01'
tRp515
tp516
a(I269
g2
(g4
S'W\x01'
tRp517
tp518
a(I270
g2
(g4
S']\x01'
tRp519
tp520
a(I271
g2
(g4
S'<\x01'
tRp521
tp522
a(I272
g2
(g4
S'\x8b\x01'
tRp523
tp524
a(I273
g2
(g4
S'Q\x01'
tRp525
tp526
a(I274
g2
(g4
S'\x87\x01'
tRp527
tp528
a(I275
g2
(g4
S';\x01'
tRp529
tp530
a(I276
g2
(g4
S'\x8c\x01'
tRp531
tp532
a(I277
g2
(g4
S'~\x01'
tRp533
tp534
a(I278
g2
(g4
S'\x82\x01'
tRp535
tp536
a(I279
g2
(g4
S'\x88\x01'
tRp537
tp538
a(I280
g2
(g4
S'\x84\x01'
tRp539
tp540
a(I281
g2
(g4
S'\x8f\x01'
tRp541
tp542
a(I282
g2
(g4
S'q\x01'
tRp543
tp544
a(I283
g517
tp545
a(I284
g2
(g4
S'e\x01'
tRp546
tp547
a(I285
g2
(g4
S'R\x01'
tRp548
tp549
a(I286
g2
(g4
S'I\x01'
tRp550
tp551
a(I287
g2
(g4
S'\x7f\x01'
tRp552
tp553
a(I288
g2
(g4
S'u\x01'
tRp554
tp555
a(I289
g2
(g4
S'\x91\x01'
tRp556
tp557
a(I290
g2
(g4
S'A\x01'
tRp558
tp559
a(I291
g2
(g4
S'[\x01'
tRp560
tp561
a(I292
g2
(g4
S'\x90\x01'
tRp562
tp563
a(I293
g2
(g4
S'v\x01'
tRp564
tp565
a(I294
g2
(g4
S'i\x01'
tRp566
tp567
a(I295
g2
(g4
S'd\x01'
tRp568
tp569
a(I296
g2
(g4
S'\x97\x01'
tRp570
tp571
a(I297
g2
(g4
S'\x81\x01'
tRp572
tp573
a(I298
g2
(g4
S'\x93\x01'
tRp574
tp575
a(I299
g2
(g4
S'\x83\x01'
tRp576
tp577
a(I300
g2
(g4
S'g\x01'
tRp578
tp579
a(I301
g2
(g4
S'`\x01'
tRp580
tp581
a(I302
g2
(g4
S'c\x01'
tRp582
tp583
a(I303
g2
(g4
S'\x92\x01'
tRp584
tp585
a(I304
g2
(g4
S'{\x01'
tRp586
tp587
a(I305
g2
(g4
S'k\x01'
tRp588
tp589
a(I306
g2
(g4
S'w\x01'
tRp590
tp591
a(I307
g2
(g4
S'\x95\x01'
tRp592
tp593
a(I308
g2
(g4
S'\x9b\x01'
tRp594
tp595
a(I309
g2
(g4
S'n\x01'
tRp596
tp597
a(I310
g2
(g4
S'\x98\x01'
tRp598
tp599
a(I311
g2
(g4
S'\x8d\x01'
tRp600
tp601
a(I312
g2
(g4
S'\x8a\x01'
tRp602
tp603
a(I313
g2
(g4
S'\x99\x01'
tRp604
tp605
a(I314
g2
(g4
S'\x9c\x01'
tRp606
tp607
a(I315
g2
(g4
S'\x89\x01'
tRp608
tp609
a(I316
g2
(g4
S'z\x01'
tRp610
tp611
a(I317
g580
tp612
a(I318
g610
tp613
a(I319
g2
(g4
S'\x94\x01'
tRp614
tp615
a(I320
g2
(g4
S'\x85\x01'
tRp616
tp617
a(I321
g2
(g4
S'x\x01'
tRp618
tp619
a(I322
g2
(g4
S'\x9d\x01'
tRp620
tp621
a(I323
g2
(g4
S'\x96\x01'
tRp622
tp623
a(I324
g2
(g4
S'|\x01'
tRp624
tp625
a(I325
g2
(g4
S'y\x01'
tRp626
tp627
a(I326
g2
(g4
S'\x8e\x01'
tRp628
tp629
a(I327
g2
(g4
S'\x86\x01'
tRp630
tp631
a(I328
g2
(g4
S'\x9a\x01'
tRp632
tp633
a(lp634
g2
(g3
(S'f4'
I0
I1
tRp635
(I3
S'<'
NNNI-1
I-1
I0
tbS'6\x01k?'
tRp636
ag2
(g635
S'\x1d\xa1o?'
tRp637
ag2
(g635
S'u\xe9c?'
tRp638
ag2
(g635
S'\xe3\x1dm?'
tRp639
ag2
(g635
S'\x92bm?'
tRp640
ag2
(g635
S'$\xe6m?'
tRp641
ag2
(g635
S'\x8bMn?'
tRp642
ag2
(g635
S'\xc7\x15p?'
tRp643
ag2
(g635
S'X~r?'
tRp644
ag2
(g635
S'\x03\xab=?'
tRp645
ag2
(g635
S'\xcf)p?'
tRp646
ag2
(g635
S'\x1d\x95l?'
tRp647
ag2
(g635
S'}\xc7d?'
tRp648
ag2
(g635
S'\xd9oO?'
tRp649
ag2
(g635
S'\xbc\xb4s?'
tRp650
ag2
(g635
S'\xe64g?'
tRp651
ag2
(g635
S'V\xb7_?'
tRp652
ag2
(g635
S'\xeb(p?'
tRp653
ag2
(g635
S'\xff\xd8q?'
tRp654
ag2
(g635
S'\xc6\x12m?'
tRp655
ag2
(g635
S'\xb3\xeer?'
tRp656
ag2
(g635
S'q\xe9j?'
tRp657
ag2
(g635
S'\x0e\xb9c?'
tRp658
ag2
(g635
S'>8n?'
tRp659
ag2
(g635
S'\xd8\xf0V?'
tRp660
ag2
(g635
S'\xee\x12s?'
tRp661
ag2
(g635
S'YSV?'
tRp662
ag2
(g635
S'?\xfda?'
tRp663
ag2
(g635
S'\x88\xf0m?'
tRp664
ag2
(g635
S'\xee\xd6o?'
tRp665
ag2
(g635
S'\xc4\x83v?'
tRp666
ag2
(g635
S'\xd2\x19r?'
tRp667
ag2
(g635
S'\x88\xbcb?'
tRp668
ag2
(g635
S'\n\xebi?'
tRp669
ag2
(g635
S'1\xedh?'
tRp670
ag2
(g635
S'F\x18j?'
tRp671
ag2
(g635
S'\xbf\xc4Z?'
tRp672
ag2
(g635
S'\xaeLf?'
tRp673
ag2
(g635
S'v\xf0D?'
tRp674
ag2
(g635
S'G@#?'
tRp675
ag2
(g635
S'b\x92n?'
tRp676
ag2
(g635
S'\xa6tr?'
tRp677
ag2
(g635
S'oCr?'
tRp678
ag2
(g635
S'\x93\xc0l?'
tRp679
ag2
(g635
S'\x16\x9e\x19?'
tRp680
ag2
(g635
S'\xcd\xccL?'
tRp681
ag2
(g635
S'H\xa1o?'
tRp682
ag2
(g635
S'\xb2\x17<?'
tRp683
ag2
(g635
S'\x83\x81j?'
tRp684
ag2
(g635
S'\xb5\xccj?'
tRp685
ag2
(g635
S'\xad\xd6p?'
tRp686
ag2
(g635
S'>@R?'
tRp687
ag2
(g635
S'\xee\x05q?'
tRp688
ag2
(g635
S'b\x1aK?'
tRp689
ag2
(g635
S'GW]>'
tRp690
ag2
(g635
S'\xae\xd5\x96>'
tRp691
ag2
(g635
S'\xc1ol?'
tRp692
ag2
(g635
S'\xe4Wo?'
tRp693
ag2
(g635
S'C\x96l?'
tRp694
ag2
(g635
S'\xbe\x9ad?'
tRp695
ag2
(g635
S'Q&n?'
tRp696
ag2
(g635
S't\x8d.?'
tRp697
ag2
(g635
S'\xf2[\xc9>'
tRp698
ag2
(g635
S'\x18\xd9]?'
tRp699
ag2
(g635
S';\x17k?'
tRp700
ag2
(g635
S'\x95rk?'
tRp701
ag2
(g635
S'R[\x8c>'
tRp702
ag2
(g635
S'\x16t\xa8>'
tRp703
ag2
(g635
S'\x98\x08\xe5>'
tRp704
ag2
(g635
S'\xee\xbf\xba>'
tRp705
ag2
(g635
S'\xb0ZH?'
tRp706
ag2
(g635
S'\xf7\xf3h?'
tRp707
ag2
(g635
S'\xdf\x16b?'
tRp708
ag2
(g635
S',\xc7\xa3>'
tRp709
ag2
(g635
S'\x16\xb9e?'
tRp710
ag2
(g635
S';KR?'
tRp711
ag2
(g635
S'\x02zv>'
tRp712
ag2
(g635
S'\xc2\x1fk?'
tRp713
ag2
(g635
S'\xad\x90\xf8>'
tRp714
ag2
(g635
S'\xcb\x03Y?'
tRp715
ag2
(g635
S'\x1dy\xaa>'
tRp716
ag2
(g635
S'\xd7\x88\xfb>'
tRp717
ag2
(g635
S'jEl?'
tRp718
ag2
(g635
S'\x9f,8?'
tRp719
ag2
(g635
S'x\x18\x14;'
tRp720
ag2
(g635
S'\xd2\xca\xf7>'
tRp721
ag2
(g635
S'&\x8dY?'
tRp722
ag2
(g635
S'\xac\xeb\x1a?'
tRp723
ag2
(g635
S'\xe3X>?'
tRp724
ag2
(g635
S'\xc5\x84d?'
tRp725
ag2
(g635
S'1\xfa\x1f?'
tRp726
ag2
(g635
S'\xc6\x1cc?'
tRp727
ag2
(g635
S'*\x0br?'
tRp728
ag2
(g635
S'\xf4\x19<?'
tRp729
ag2
(g635
S'\x10\x9cU?'
tRp730
ag2
(g635
S'\x89x^?'
tRp731
ag2
(g635
S'WJC?'
tRp732
ag2
(g635
S'k\xcbm?'
tRp733
ag2
(g635
S'\xc0b\xf3>'
tRp734
ag2
(g635
S'\xfe\x8aP?'
tRp735
ag2
(g635
S'o\xfb\x8f<'
tRp736
ag2
(g635
S'9\xb5i?'
tRp737
ag2
(g635
S'\xafy\x90='
tRp738
ag2
(g635
S'V\xba\xb9>'
tRp739
ag2
(g635
S';\x03\xcd='
tRp740
ag2
(g635
S'\x88 p?'
tRp741
ag2
(g635
S'\xab\xcah?'
tRp742
ag2
(g635
S'\x13\x8f\xc6>'
tRp743
ag2
(g635
S'3\xab^<'
tRp744
ag2
(g635
S'\xd1i\x10?'
tRp745
ag2
(g635
S'p\xc6p?'
tRp746
ag2
(g635
S'Y)r?'
tRp747
ag2
(g635
S'\x19jV?'
tRp748
ag2
(g635
S'@Po?'
tRp749
ag2
(g635
S'\xbc\x88s?'
tRp750
ag2
(g635
S'0\xb7q?'
tRp751
ag2
(g635
S'0(s?'
tRp752
ag2
(g635
S'\xb1\xaeo?'
tRp753
ag2
(g635
S'#\x0bp?'
tRp754
ag2
(g635
S'\xfaMr?'
tRp755
ag2
(g635
S'\x0c\xb8m?'
tRp756
ag2
(g635
S'\xf4\xbbn?'
tRp757
ag2
(g635
S'U\xcdn?'
tRp758
ag2
(g635
S'=\xb6o?'
tRp759
ag2
(g635
S'\x17\x14p?'
tRp760
ag2
(g635
S'l\x10E?'
tRp761
ag2
(g635
S'F\x8co?'
tRp762
ag2
(g635
S'\xb7\xecn?'
tRp763
ag2
(g635
S'.dZ?'
tRp764
ag2
(g635
S'\xe8\x0fd?'
tRp765
ag2
(g635
S'\xbc\xa05?'
tRp766
ag2
(g635
S'\xc0_m?'
tRp767
ag2
(g635
S'D>s?'
tRp768
ag2
(g635
S'o$*?'
tRp769
ag2
(g635
S'\x1f\xd4q?'
tRp770
ag2
(g635
S'|\xddm?'
tRp771
ag2
(g635
S'\x9f\x88Z?'
tRp772
ag2
(g635
S'\xc4\xacm?'
tRp773
ag2
(g635
S'\xa0\x03a?'
tRp774
ag2
(g635
S'\xd1\x9eF?'
tRp775
ag2
(g635
S'\x9c_g?'
tRp776
ag2
(g635
S'\x90\x9ak?'
tRp777
ag2
(g635
S'\xd6\x1bq?'
tRp778
ag2
(g635
S'\xa8\xb7m?'
tRp779
ag2
(g635
S'\xcfnn?'
tRp780
ag2
(g635
S'sHj?'
tRp781
ag2
(g635
S'\xabze?'
tRp782
ag2
(g635
S'\xbfBp?'
tRp783
ag2
(g635
S'\x94\xe6n?'
tRp784
ag2
(g635
S'\t\xb3r?'
tRp785
ag2
(g635
S'\x18\x03s?'
tRp786
ag2
(g635
S'3\xaf\x13?'
tRp787
ag2
(g635
S'\x0f\x83j?'
tRp788
ag2
(g635
S'\xf1\xd8h?'
tRp789
ag2
(g635
S'\xbd\xd0j?'
tRp790
ag2
(g635
S'\x15>r?'
tRp791
ag2
(g635
S'\xbd\x0cl?'
tRp792
ag2
(g635
S'\xb3\x0bk?'
tRp793
ag2
(g635
S'\x86\x0ef?'
tRp794
ag2
(g635
S'\xf9\x0fl?'
tRp795
ag2
(g635
S'L\x0bo?'
tRp796
ag2
(g635
S'\xb1\rs?'
tRp797
ag2
(g635
S'\xd4an?'
tRp798
ag2
(g635
S'5\xadl?'
tRp799
ag2
(g635
S'\xfb}r?'
tRp800
ag2
(g635
S'\xea\xb3l?'
tRp801
ag2
(g635
S'\xdb\xfbp?'
tRp802
ag2
(g635
S'\x1b\x87n?'
tRp803
ag2
(g635
S'\xacnj?'
tRp804
ag2
(g635
S'\x83\x8de?'
tRp805
ag2
(g635
S'+\rs?'
tRp806
ag2
(g635
S'CN\x06?'
tRp807
ag2
(g635
S'Y\x94o?'
tRp808
ag2
(g635
S'Fcq?'
tRp809
ag2
(g635
S'!\x9em?'
tRp810
ag2
(g635
S'\xf5\xedk?'
tRp811
ag2
(g635
S'S\xe2k?'
tRp812
ag2
(g635
S'\xdc\x9e!?'
tRp813
ag2
(g635
S'\x914n?'
tRp814
ag2
(g635
S'^\x17n?'
tRp815
ag2
(g635
S'Y\x98m?'
tRp816
ag2
(g635
S'\xdf\xa4p?'
tRp817
ag2
(g635
S'1\xeem?'
tRp818
ag2
(g635
S'\xf98q?'
tRp819
ag2
(g635
S'r\xabn?'
tRp820
ag2
(g635
S'\xb1\xf9p?'
tRp821
ag2
(g635
S'\xcc6n?'
tRp822
ag2
(g635
S'D!l?'
tRp823
ag2
(g635
S'\x1dui?'
tRp824
ag2
(g635
S'\x93\xfd!?'
tRp825
ag2
(g635
S'\xde^r?'
tRp826
ag2
(g635
S'V\x1dj?'
tRp827
ag2
(g635
S'u\xafq?'
tRp828
ag2
(g635
S'\x89Am?'
tRp829
ag2
(g635
S' \xa9e?'
tRp830
ag2
(g635
S'\xd9\x13n?'
tRp831
ag2
(g635
S'\x04\xfbm?'
tRp832
ag2
(g635
S'\xd5\xf6j?'
tRp833
ag2
(g635
S'\x96\xa0n?'
tRp834
ag2
(g635
S'[Pp?'
tRp835
ag2
(g635
S'\x86\xf6p?'
tRp836
ag2
(g635
S'\xdc\xb5q?'
tRp837
ag2
(g635
S'\x01\xa4m?'
tRp838
ag2
(g635
S'\xe0\xebq?'
tRp839
ag2
(g635
S'\xc1\xbd\x1e?'
tRp840
ag2
(g635
S'\xddVn?'
tRp841
ag2
(g635
S'\xb3\xbcr?'
tRp842
ag2
(g635
S'\xdc\x08r?'
tRp843
ag2
(g635
S'\xb5\xd0k?'
tRp844
ag2
(g635
S'\x9cDn?'
tRp845
ag2
(g635
S'\x1c\xdc!?'
tRp846
ag2
(g635
S'\x05-l?'
tRp847
ag2
(g635
S'\x8a\x0cq?'
tRp848
ag2
(g635
S'\xe8ji?'
tRp849
ag2
(g635
S'\xb2\xe2o?'
tRp850
ag2
(g635
S'\xaa\xb2\x12?'
tRp851
ag2
(g635
S'\x1a\x83q?'
tRp852
ag2
(g635
S'D\x93h?'
tRp853
ag2
(g635
S'>Ri?'
tRp854
ag2
(g635
S'B\x19r?'
tRp855
ag2
(g635
S'\t`s?'
tRp856
ag2
(g635
S'\x9c\xff\xde>'
tRp857
ag2
(g635
S'\x15C\x1d?'
tRp858
ag2
(g635
S'\xa1,l?'
tRp859
ag2
(g635
S'l\xbdn?'
tRp860
ag2
(g635
S'5-s?'
tRp861
ag2
(g635
S'\xf47r?'
tRp862
ag2
(g635
S'\xb1^m?'
tRp863
ag2
(g635
S'\x13\xdak?'
tRp864
ag2
(g635
S'y\xf9q?'
tRp865
ag2
(g635
S'X\x96o?'
tRp866
ag2
(g635
S'\xfcDo?'
tRp867
ag2
(g635
S'X3k?'
tRp868
ag2
(g635
S'\\7e?'
tRp869
ag2
(g635
S'CSr?'
tRp870
ag2
(g635
S'k\x98s?'
tRp871
ag2
(g635
S'*\xb1k?'
tRp872
ag2
(g635
S'\xf3\x08q?'
tRp873
ag2
(g635
S'R\x9cm?'
tRp874
ag2
(g635
S'\x8d\xc3p?'
tRp875
ag2
(g635
S'\x16\xa4m?'
tRp876
ag2
(g635
S'\x90ap?'
tRp877
ag2
(g635
S'\xe2\xacq?'
tRp878
ag2
(g635
S'\xa3\x8ds?'
tRp879
ag2
(g635
S'3\x86l?'
tRp880
ag2
(g635
S'N\x9c\x95>'
tRp881
ag2
(g635
S'\xd7,n?'
tRp882
ag2
(g635
S'~\xbah?'
tRp883
ag2
(g635
S'\xcaYq?'
tRp884
ag2
(g635
S'\xac\xcap?'
tRp885
ag2
(g635
S',7r?'
tRp886
ag2
(g635
S'\xe6\xbem?'
tRp887
ag2
(g635
S'L\\l?'
tRp888
ag2
(g635
S'\xdbNp?'
tRp889
ag2
(g635
S'\x8d\xb4n?'
tRp890
ag2
(g635
S'4\x88q?'
tRp891
ag2
(g635
S'\xb9\x90q?'
tRp892
ag2
(g635
S'\xe4\xfbp?'
tRp893
ag2
(g635
S'\x14\xbdj?'
tRp894
ag2
(g635
S'|\xffr?'
tRp895
ag2
(g635
S'\xb3\xd7o?'
tRp896
ag2
(g635
S'\xd9\xb7p?'
tRp897
ag2
(g635
S'r\xc6q?'
tRp898
ag2
(g635
S'\xe0\x83b?'
tRp899
ag2
(g635
S'f"r?'
tRp900
ag2
(g635
S'M\xfco?'
tRp901
ag2
(g635
S'\x17&l?'
tRp902
ag2
(g635
S'(\xe9\x06?'
tRp903
ag2
(g635
S'9dq?'
tRp904
ag2
(g635
S'\xc8\x87l?'
tRp905
ag2
(g635
S'\xbe\to?'
tRp906
ag2
(g635
S'\r\x00o?'
tRp907
ag2
(g635
S'1Gm?'
tRp908
ag2
(g635
S'\xab\x99s?'
tRp909
ag2
(g635
S'\x14\xffo?'
tRp910
ag2
(g635
S'\x86\xf3q?'
tRp911
ag2
(g635
S'\xdb\xf2m?'
tRp912
ag2
(g635
S'\xef\x8fo?'
tRp913
ag2
(g635
S'\xe3\x0ci?'
tRp914
ag2
(g635
S'\xb6\x00o?'
tRp915
ag2
(g635
S'\x0eop?'
tRp916
ag2
(g635
S'(\x8e,?'
tRp917
ag2
(g635
S'=\xa4r?'
tRp918
ag2
(g635
S'x}s?'
tRp919
ag2
(g635
S'a\xd6r?'
tRp920
ag2
(g635
S'\x97\x80s?'
tRp921
ag2
(g635
S'\xb1\x08m?'
tRp922
ag2
(g635
S'i\xaem?'
tRp923
ag2
(g635
S'l!p?'
tRp924
ag2
(g635
S'}\xc3m?'
tRp925
ag2
(g635
S'zcp?'
tRp926
ag2
(g635
S'Q\xa0o?'
tRp927
ag2
(g635
S'z%g?'
tRp928
ag2
(g635
S'X\x02r?'
tRp929
ag2
(g635
S'\x85\x94l?'
tRp930
ag2
(g635
S'n{q?'
tRp931
ag2
(g635
S'\xab\xe6n?'
tRp932
ag2
(g635
S'\x1csq?'
tRp933
ag2
(g635
S'\xae+s?'
tRp934
ag2
(g635
S'x\xf6\x17?'
tRp935
ag2
(g635
S'\x15\x99k?'
tRp936
ag2
(g635
S'e\xbem?'
tRp937
ag2
(g635
S'3dl?'
tRp938
ag2
(g635
S'\xb9Wq?'
tRp939
ag2
(g635
S'\xb9\xf8l?'
tRp940
ag2
(g635
S'\xa9\xf4q?'
tRp941
ag2
(g635
S'B\x86k?'
tRp942
ag2
(g635
S'\x07Bs?'
tRp943
ag2
(g635
S'\xfafq?'
tRp944
ag2
(g635
S'\x9f\xd3p?'
tRp945
ag2
(g635
S'\xec9o?'
tRp946
ag2
(g635
S'Wlp?'
tRp947
ag2
(g635
S'p\xd3o?'
tRp948
ag2
(g635
S'X\xbem?'
tRp949
ag2
(g635
S'\xad\xb3\x1a?'
tRp950
ag2
(g635
S'\x155\x06?'
tRp951
ag2
(g635
S'\xe9\xda&?'
tRp952
ag2
(g635
S'\xb4\x85n?'
tRp953
ag2
(g635
S'\xd6;t?'
tRp954
ag2
(g635
S'\xca\x10n?'
tRp955
ag2
(g635
S'\xda\xfdn?'
tRp956
ag2
(g635
S'JIr?'
tRp957
ag2
(g635
S'\xd3\x82r?'
tRp958
ag2
(g635
S'\xf9nk?'
tRp959
ag2
(g635
S'\x0c|p?'
tRp960
ag2
(g635
S'+nq?'
tRp961
ag2
(g635
S'D\x87m?'
tRp962
at.