(lp1
(lp2
(I389
I260
tp3
a(I386
I280
tp4
a(I396
I287
tp5
a(I417
I299
tp6
a(I416
I278
tp7
a(I424
I282
tp8
a(I406
I244
tp9
a(I425
I261
tp10
a(I391
I228
tp11
a(I356
I176
tp12
a(I376
I233
tp13
a(I325
I190
tp14
a(I326
I156
tp15
a(I361
I252
tp16
a(I324
I225
tp17
a(I280
I196
tp18
a(I343
I267
tp19
a(I380
I279
tp20
a(I342
I289
tp21
a(I366
I308
tp22
a(I378
I298
tp23
a(I401
I314
tp24
a(I410
I307
tp25
a(I429
I312
tp26
a(I434
I304
tp27
a(I427
I284
tp28
a(I431
I318
tp29
a(I433
I318
tp30
a(I423
I326
tp31
a(I408
I323
tp32
a(I400
I322
tp33
a(I379
I313
tp34
a(I337
I310
tp35
a(I355
I310
tp36
a(I327
I311
tp37
a(I359
I319
tp38
a(I383
I328
tp39
a(I393
I320
tp40
a(I402
I327
tp41
a(I420
I324
tp42
a(I418
I305
tp43
a(I421
I291
tp44
a(I413
I286
tp45
a(I435
I317
tp46
a(I432
I301
tp47
a(I430
I273
tp48
a(I428
I262
tp49
a(I398
I204
tp50
a(I357
I115
tp51
a(I407
I218
tp52
a(I387
I158
tp53
a(I426
I224
tp54
a(I404
I206
tp55
a(I394
I285
tp56
a(I395
I250
tp57
a(I365
I241
tp58
a(I360
I266
tp59
a(I309
I236
tp60
a(I344
I290
tp61
a(I375
I302
tp62
a(I390
I309
tp63
a(I412
I325
tp64
a(I388
I321
tp65
a(I341
I300
tp66
a(I307
I295
tp67
a(I281
I294
tp68
a(I315
I306
tp69
a(I371
I315
tp70
a(I308
I293
tp71
a(I243
I293
tp72
a(I272
I297
tp73
a(I289
I303
tp74
a(I290
I292
tp75
a(I332
I296
tp76
a(I312
I281
tp77
a(I264
I276
tp78
a(I274
I259
tp79
a(I222
I230
tp80
a(I322
I272
tp81
a(I278
I238
tp82
a(I258
I195
tp83
a(I223
I215
tp84
a(I161
I177
tp85
a(I197
I242
tp86
a(I204
I263
tp87
a(I234
I274
tp88
a(I166
I251
tp89
a(I210
I277
tp90
a(I225
I288
tp91
a(I168
I264
tp92
a(I180
I270
tp93
a(I250
I283
tp94
a(I422
I271
tp95
a(I415
I227
tp96
a(I419
I227
tp97
a(I414
I208
tp98
a(I411
I248
tp99
a(I384
I201
tp100
aa(lp101
I1
aI1
aI1
aI1
aI1
aI1
aI1
aI1
aI1
aI1
aI1
aI1
aI1
aI1
aI1
aI1
aI1
aI1
aI1
aI1
aI1
aI1
aI1
aI1
aI1
aI1
aI1
aI1
aI1
aI1
aI1
aI1
aI1
aI1
aI1
aI1
aI1
aI1
aI1
aI1
aI1
aI1
aI1
aI1
aI1
aI1
aI1
aI1
aI1
aI1
aI1
aI1
aI1
aI1
aI1
aI1
aI1
aI1
aI1
aI1
aI1
aI1
aI1
aI1
aI1
aI1
aI1
aI1
aI1
aI1
aI1
aI1
aI1
aI1
aI1
aI1
aI1
aI1
aI1
aI1
aI1
aI1
aI1
aI1
aI1
aI1
aI1
aI1
aI1
aI1
aI1
aI1
aI1
aI1
aI1
aI1
aI1
aI1
aa.